	.file	"rust_strengths_demo.deded364a05dba23-cgu.0"
	.section	".text._ZN102_$LT$core..iter..adapters..map..Map$LT$I$C$F$GT$$u20$as$u20$core..iter..traits..iterator..Iterator$GT$4next17hf288a665a3869aecE","ax",@progbits
	.p2align	4
	.type	_ZN102_$LT$core..iter..adapters..map..Map$LT$I$C$F$GT$$u20$as$u20$core..iter..traits..iterator..Iterator$GT$4next17hf288a665a3869aecE,@function
_ZN102_$LT$core..iter..adapters..map..Map$LT$I$C$F$GT$$u20$as$u20$core..iter..traits..iterator..Iterator$GT$4next17hf288a665a3869aecE:
.Lfunc_begin0:
	.cfi_startproc
	.cfi_personality 155, DW.ref.rust_eh_personality
	.cfi_lsda 27, .Lexception0
	pushq	%rbp
	.cfi_def_cfa_offset 16
	pushq	%r15
	.cfi_def_cfa_offset 24
	pushq	%r14
	.cfi_def_cfa_offset 32
	pushq	%r13
	.cfi_def_cfa_offset 40
	pushq	%r12
	.cfi_def_cfa_offset 48
	pushq	%rbx
	.cfi_def_cfa_offset 56
	subq	$168, %rsp
	.cfi_def_cfa_offset 224
	.cfi_offset %rbx, -56
	.cfi_offset %r12, -48
	.cfi_offset %r13, -40
	.cfi_offset %r14, -32
	.cfi_offset %r15, -24
	.cfi_offset %rbp, -16
	movq	%rdi, %rbx
	movabsq	$9223372036854775807, %r13
	cmpb	$0, 40(%rsi)
	jne	.LBB0_82
	movq	%rsi, %r14
	movq	(%rsi), %rsi
	cmpq	8(%r14), %rsi
	je	.LBB0_82
	leaq	48(%rsi), %rax
	movq	%rax, (%r14)
	movq	24(%rsi), %xmm0
	movq	%xmm0, %rax
	andq	%r13, %rax
	movabsq	$9218868437227405311, %rcx
	cmpq	%rcx, %rax
	jle	.LBB0_3
	addq	$40, %rsi
	movq	%rsi, 80(%rsp)
	movq	_ZN4core3fmt3num3imp52_$LT$impl$u20$core..fmt..Display$u20$for$u20$u32$GT$3fmt17h6e5c70dddef214f6E@GOTPCREL(%rip), %rax
	movq	%rax, 88(%rsp)
	leaq	.Lanon.94be9b806268416248345155c2a8fe89.131(%rip), %rax
	jmp	.LBB0_6
.LBB0_3:
	cmpq	$0, 16(%rsi)
	je	.LBB0_4
	leaq	8(%rsp), %rdi
	leaq	.Lanon.94be9b806268416248345155c2a8fe89.136(%rip), %rdx
	movq	%xmm0, 104(%rsp)
	callq	*_ZN60_$LT$alloc..string..String$u20$as$u20$core..clone..Clone$GT$5clone17hfde881c263d6e4c5E@GOTPCREL(%rip)
	movsd	104(%rsp), %xmm0
	movsd	%xmm0, 32(%rsp)
	xorl	%eax, %eax
	jmp	.LBB0_8
.LBB0_4:
	addq	$40, %rsi
	movq	%rsi, 80(%rsp)
	movq	_ZN4core3fmt3num3imp52_$LT$impl$u20$core..fmt..Display$u20$for$u20$u32$GT$3fmt17h6e5c70dddef214f6E@GOTPCREL(%rip), %rax
	movq	%rax, 88(%rsp)
	leaq	.Lanon.94be9b806268416248345155c2a8fe89.129(%rip), %rax
.LBB0_6:
	movq	%rax, (%rsp)
	movq	$1, 8(%rsp)
	movq	$0, 32(%rsp)
	leaq	80(%rsp), %rax
	movq	%rax, 16(%rsp)
	movq	$1, 24(%rsp)
	leaq	56(%rsp), %rdi
	movq	%rsp, %rsi
	callq	*_ZN5alloc3fmt6format12format_inner17h22e479de3018d8e0E@GOTPCREL(%rip)
	movq	$0, 48(%rsp)
	movups	64(%rsp), %xmm0
	movups	%xmm0, 24(%rsp)
	movq	48(%rsp), %rax
	movq	%rax, 8(%rsp)
	movq	56(%rsp), %rax
	movq	%rax, 16(%rsp)
	movl	$1, %eax
.LBB0_8:
	movq	%rax, (%rsp)
	movq	8(%rsp), %rsi
	movq	16(%rsp), %rdi
	movups	24(%rsp), %xmm0
	movaps	%xmm0, 80(%rsp)
	testq	%rax, %rax
	je	.LBB0_76
	movq	24(%r14), %rax
	movq	(%rax), %r15
	movq	%rsi, (%rsp)
	movq	%rdi, 8(%rsp)
	movaps	80(%rsp), %xmm0
	movups	%xmm0, 16(%rsp)
	movl	$1, %ecx
	xorl	%eax, %eax
	lock		cmpxchgl	%ecx, (%r15)
	jne	.LBB0_28
	movq	_ZN3std9panicking11panic_count18GLOBAL_PANIC_COUNT17h6b73b4a44f7b7da6E@GOTPCREL(%rip), %r12
	movq	(%r12), %rax
	testq	%r13, %rax
	jne	.LBB0_12
	xorl	%eax, %eax
.LBB0_14:
	movzbl	4(%r15), %ecx
	xorl	%edx, %edx
	movb	$1, %bpl
	testb	%cl, %cl
	setne	%dl
	movq	%r15, 56(%rsp)
	movb	%al, 64(%rsp)
	movq	%rdx, 48(%rsp)
	jne	.LBB0_29
	cmpl	$3, 8(%r15)
	jne	.LBB0_16
	leaq	8(%r15), %rcx
	movups	(%rsp), %xmm0
	movups	16(%rsp), %xmm1
	movups	%xmm1, 16(%rcx)
	movups	%xmm0, (%rcx)
	testb	%al, %al
	jne	.LBB0_66
	movq	(%r12), %rax
	testq	%r13, %rax
	jne	.LBB0_63
.LBB0_66:
	xorl	%ebp, %ebp
	xorl	%eax, %eax
	xchgl	%eax, (%r15)
	cmpl	$2, %eax
	jne	.LBB0_29
	xorl	%ebp, %ebp
.Ltmp8:
	movq	%r15, %rdi
	callq	*_ZN3std3sys4sync5mutex5futex5Mutex4wake17h01da496fd8ff9537E@GOTPCREL(%rip)
.Ltmp9:
	jmp	.LBB0_29
.LBB0_76:
	movaps	80(%rsp), %xmm0
	movaps	%xmm0, 128(%rsp)
	leaq	2(%r13), %rax
	cmpq	%rax, %rsi
	je	.LBB0_82
	movaps	128(%rsp), %xmm0
	movaps	%xmm0, 112(%rsp)
	movq	32(%r14), %rax
	leaq	1(%r13), %rcx
	cmpq	%rcx, %rsi
	je	.LBB0_78
	movzbl	(%rax), %eax
	testb	%al, %al
	je	.LBB0_84
	movb	$1, 40(%r14)
	testq	%rsi, %rsi
	je	.LBB0_82
	movl	$1, %edx
	callq	*_RNvCsb3o7Y5DtQ0O_7___rustc14___rust_dealloc@GOTPCREL(%rip)
	jmp	.LBB0_82
.LBB0_28:
	movb	$2, 64(%rsp)
	movq	$1, 48(%rsp)
	movb	$1, %bpl
.LBB0_29:
	movq	48(%rsp), %rax
	testq	%rax, %rax
	je	.LBB0_30
.LBB0_24:
	movq	56(%rsp), %r15
	movzbl	64(%rsp), %ecx
	testq	%rax, %rax
	je	.LBB0_25
	cmpb	$2, %cl
	je	.LBB0_52
	testb	$1, %cl
	jne	.LBB0_50
	movq	_ZN3std9panicking11panic_count18GLOBAL_PANIC_COUNT17h6b73b4a44f7b7da6E@GOTPCREL(%rip), %rax
	movq	(%rax), %rax
	testq	%r13, %rax
	je	.LBB0_50
.Ltmp17:
	callq	*_ZN3std9panicking11panic_count17is_zero_slow_path17he616e583ae2cd51bE@GOTPCREL(%rip)
.Ltmp18:
	jmp	.LBB0_48
.LBB0_30:
	testb	%bpl, %bpl
	je	.LBB0_52
	movq	56(%rsp), %r15
	cmpb	$0, 64(%rsp)
	jne	.LBB0_36
	movq	_ZN3std9panicking11panic_count18GLOBAL_PANIC_COUNT17h6b73b4a44f7b7da6E@GOTPCREL(%rip), %rax
	movq	(%rax), %rax
	testq	%r13, %rax
	jne	.LBB0_33
.LBB0_36:
	xorl	%eax, %eax
	xchgl	%eax, (%r15)
	cmpl	$2, %eax
	jne	.LBB0_52
.Ltmp15:
	movq	%r15, %rdi
	callq	*_ZN3std3sys4sync5mutex5futex5Mutex4wake17h01da496fd8ff9537E@GOTPCREL(%rip)
.Ltmp16:
	jmp	.LBB0_52
.LBB0_25:
	testb	$1, %cl
	jne	.LBB0_50
	movq	_ZN3std9panicking11panic_count18GLOBAL_PANIC_COUNT17h6b73b4a44f7b7da6E@GOTPCREL(%rip), %rax
	movq	(%rax), %rax
	testq	%r13, %rax
	jne	.LBB0_27
.LBB0_50:
	xorl	%eax, %eax
	xchgl	%eax, (%r15)
	cmpl	$2, %eax
	je	.LBB0_51
.LBB0_52:
	testb	%bpl, %bpl
	je	.LBB0_75
.LBB0_53:
	movq	(%rsp), %rax
	testq	%rax, %rax
	je	.LBB0_72
	cmpl	$1, %eax
	jne	.LBB0_55
.LBB0_72:
	movq	8(%rsp), %rsi
	testq	%rsi, %rsi
	je	.LBB0_75
	movq	16(%rsp), %rdi
	movl	$1, %edx
.LBB0_74:
	callq	*_RNvCsb3o7Y5DtQ0O_7___rustc14___rust_dealloc@GOTPCREL(%rip)
	jmp	.LBB0_75
.LBB0_55:
	movq	8(%rsp), %rax
	movl	%eax, %ecx
	andl	$3, %ecx
	cmpl	$1, %ecx
	je	.LBB0_56
.LBB0_75:
	movq	32(%r14), %rax
.LBB0_78:
	movb	$1, (%rax)
	movb	$1, 40(%r14)
.LBB0_82:
	incq	%r13
	movq	%r13, (%rbx)
.LBB0_83:
	addq	$168, %rsp
	.cfi_def_cfa_offset 56
	popq	%rbx
	.cfi_def_cfa_offset 48
	popq	%r12
	.cfi_def_cfa_offset 40
	popq	%r13
	.cfi_def_cfa_offset 32
	popq	%r14
	.cfi_def_cfa_offset 24
	popq	%r15
	.cfi_def_cfa_offset 16
	popq	%rbp
	.cfi_def_cfa_offset 8
	retq
.LBB0_84:
	.cfi_def_cfa_offset 224
	movaps	112(%rsp), %xmm0
	movups	%xmm0, 16(%rbx)
	movq	%rsi, (%rbx)
	movq	%rdi, 8(%rbx)
	jmp	.LBB0_83
.LBB0_16:
	testb	%al, %al
	jne	.LBB0_21
	movq	(%r12), %rax
	testq	%r13, %rax
	jne	.LBB0_18
.LBB0_21:
	xorl	%eax, %eax
	xchgl	%eax, (%r15)
	cmpl	$2, %eax
	je	.LBB0_22
.LBB0_23:
	movq	48(%rsp), %rax
	movb	$1, %bpl
	testq	%rax, %rax
	jne	.LBB0_24
	jmp	.LBB0_53
.LBB0_56:
	leaq	-1(%rax), %r15
	movq	-1(%rax), %r12
	movq	7(%rax), %rbp
	movq	(%rbp), %rax
	testq	%rax, %rax
	je	.LBB0_58
.Ltmp27:
	movq	%r12, %rdi
	callq	*%rax
.Ltmp28:
.LBB0_58:
	movq	8(%rbp), %rsi
	testq	%rsi, %rsi
	je	.LBB0_60
	movq	16(%rbp), %rdx
	movq	%r12, %rdi
	callq	*_RNvCsb3o7Y5DtQ0O_7___rustc14___rust_dealloc@GOTPCREL(%rip)
.LBB0_60:
	movl	$24, %esi
	movl	$8, %edx
	movq	%r15, %rdi
	jmp	.LBB0_74
.LBB0_12:
	movb	$1, %bpl
.Ltmp0:
	callq	*_ZN3std9panicking11panic_count17is_zero_slow_path17he616e583ae2cd51bE@GOTPCREL(%rip)
.Ltmp1:
	xorb	$1, %al
	jmp	.LBB0_14
.LBB0_51:
.Ltmp21:
	movq	%r15, %rdi
	callq	*_ZN3std3sys4sync5mutex5futex5Mutex4wake17h01da496fd8ff9537E@GOTPCREL(%rip)
.Ltmp22:
	jmp	.LBB0_52
.LBB0_33:
.Ltmp13:
	callq	*_ZN3std9panicking11panic_count17is_zero_slow_path17he616e583ae2cd51bE@GOTPCREL(%rip)
.Ltmp14:
	testb	%al, %al
	jne	.LBB0_36
	movb	$1, 4(%r15)
	jmp	.LBB0_36
.LBB0_27:
.Ltmp19:
	callq	*_ZN3std9panicking11panic_count17is_zero_slow_path17he616e583ae2cd51bE@GOTPCREL(%rip)
.Ltmp20:
.LBB0_48:
	testb	%al, %al
	jne	.LBB0_50
	movb	$1, 4(%r15)
	jmp	.LBB0_50
.LBB0_22:
	movb	$1, %bpl
.Ltmp4:
	movq	%r15, %rdi
	callq	*_ZN3std3sys4sync5mutex5futex5Mutex4wake17h01da496fd8ff9537E@GOTPCREL(%rip)
.Ltmp5:
	jmp	.LBB0_23
.LBB0_63:
	xorl	%ebp, %ebp
.Ltmp6:
	callq	*_ZN3std9panicking11panic_count17is_zero_slow_path17he616e583ae2cd51bE@GOTPCREL(%rip)
.Ltmp7:
	testb	%al, %al
	jne	.LBB0_66
	movb	$1, 4(%r15)
	jmp	.LBB0_66
.LBB0_18:
	movb	$1, %bpl
.Ltmp2:
	callq	*_ZN3std9panicking11panic_count17is_zero_slow_path17he616e583ae2cd51bE@GOTPCREL(%rip)
.Ltmp3:
	testb	%al, %al
	jne	.LBB0_21
	movb	$1, 4(%r15)
	jmp	.LBB0_21
.LBB0_42:
.Ltmp10:
	movq	%rax, %rbx
	cmpq	$0, 48(%rsp)
	je	.LBB0_39
.Ltmp11:
	leaq	48(%rsp), %rdi
	callq	_ZN4core3ptr307drop_in_place$LT$core..result..Result$LT$std..sync..poison..mutex..MutexGuard$LT$core..option..Option$LT$rust_strengths_demo..ProcessingError$GT$$GT$$C$std..sync..poison..TryLockError$LT$std..sync..poison..mutex..MutexGuard$LT$core..option..Option$LT$rust_strengths_demo..ProcessingError$GT$$GT$$GT$$GT$$GT$17h6bce9896227e0beeE
.Ltmp12:
	jmp	.LBB0_39
.LBB0_38:
.Ltmp23:
	movq	%rax, %rbx
.LBB0_39:
	testb	%bpl, %bpl
	je	.LBB0_41
.Ltmp24:
	movq	%rsp, %rdi
	callq	_ZN4core3ptr57drop_in_place$LT$rust_strengths_demo..ProcessingError$GT$17h7c3ce9bb6fceb975E
.Ltmp25:
.LBB0_41:
	movq	%rbx, %rdi
	callq	_Unwind_Resume@PLT
.LBB0_68:
.Ltmp26:
	callq	*_ZN4core9panicking16panic_in_cleanup17h6f48b941993644b5E@GOTPCREL(%rip)
.LBB0_69:
.Ltmp29:
	movq	%rax, %rbx
	movq	8(%rbp), %rsi
	testq	%rsi, %rsi
	je	.LBB0_71
	movq	16(%rbp), %rdx
	movq	%r12, %rdi
	callq	*_RNvCsb3o7Y5DtQ0O_7___rustc14___rust_dealloc@GOTPCREL(%rip)
.LBB0_71:
	movl	$24, %esi
	movl	$8, %edx
	movq	%r15, %rdi
	callq	*_RNvCsb3o7Y5DtQ0O_7___rustc14___rust_dealloc@GOTPCREL(%rip)
	movq	%rbx, %rdi
	callq	_Unwind_Resume@PLT
.Lfunc_end0:
	.size	_ZN102_$LT$core..iter..adapters..map..Map$LT$I$C$F$GT$$u20$as$u20$core..iter..traits..iterator..Iterator$GT$4next17hf288a665a3869aecE, .Lfunc_end0-_ZN102_$LT$core..iter..adapters..map..Map$LT$I$C$F$GT$$u20$as$u20$core..iter..traits..iterator..Iterator$GT$4next17hf288a665a3869aecE
	.cfi_endproc
	.section	".gcc_except_table._ZN102_$LT$core..iter..adapters..map..Map$LT$I$C$F$GT$$u20$as$u20$core..iter..traits..iterator..Iterator$GT$4next17hf288a665a3869aecE","a",@progbits
	.p2align	2, 0x0
GCC_except_table0:
.Lexception0:
	.byte	255
	.byte	155
	.uleb128 .Lttbase0-.Lttbaseref0
.Lttbaseref0:
	.byte	1
	.uleb128 .Lcst_end0-.Lcst_begin0
.Lcst_begin0:
	.uleb128 .Lfunc_begin0-.Lfunc_begin0
	.uleb128 .Ltmp8-.Lfunc_begin0
	.byte	0
	.byte	0
	.uleb128 .Ltmp8-.Lfunc_begin0
	.uleb128 .Ltmp9-.Ltmp8
	.uleb128 .Ltmp10-.Lfunc_begin0
	.byte	0
	.uleb128 .Ltmp17-.Lfunc_begin0
	.uleb128 .Ltmp16-.Ltmp17
	.uleb128 .Ltmp23-.Lfunc_begin0
	.byte	0
	.uleb128 .Ltmp27-.Lfunc_begin0
	.uleb128 .Ltmp28-.Ltmp27
	.uleb128 .Ltmp29-.Lfunc_begin0
	.byte	0
	.uleb128 .Ltmp0-.Lfunc_begin0
	.uleb128 .Ltmp20-.Ltmp0
	.uleb128 .Ltmp23-.Lfunc_begin0
	.byte	0
	.uleb128 .Ltmp4-.Lfunc_begin0
	.uleb128 .Ltmp3-.Ltmp4
	.uleb128 .Ltmp10-.Lfunc_begin0
	.byte	0
	.uleb128 .Ltmp11-.Lfunc_begin0
	.uleb128 .Ltmp25-.Ltmp11
	.uleb128 .Ltmp26-.Lfunc_begin0
	.byte	1
	.uleb128 .Ltmp25-.Lfunc_begin0
	.uleb128 .Lfunc_end0-.Ltmp25
	.byte	0
	.byte	0
.Lcst_end0:
	.byte	127
	.byte	0
	.p2align	2, 0x0
.Lttbase0:
	.byte	0
	.p2align	2, 0x0

	.section	".text.unlikely._ZN103_$LT$std..sys..thread_local..abort_on_dtor_unwind..DtorUnwindGuard$u20$as$u20$core..ops..drop..Drop$GT$4drop17h3038f8b90ff8dbd3E","ax",@progbits
	.p2align	4
	.type	_ZN103_$LT$std..sys..thread_local..abort_on_dtor_unwind..DtorUnwindGuard$u20$as$u20$core..ops..drop..Drop$GT$4drop17h3038f8b90ff8dbd3E,@function
_ZN103_$LT$std..sys..thread_local..abort_on_dtor_unwind..DtorUnwindGuard$u20$as$u20$core..ops..drop..Drop$GT$4drop17h3038f8b90ff8dbd3E:
	.cfi_startproc
	subq	$72, %rsp
	.cfi_def_cfa_offset 80
	leaq	.Lanon.94be9b806268416248345155c2a8fe89.1(%rip), %rax
	movq	%rax, 24(%rsp)
	movq	$1, 32(%rsp)
	movq	$8, 40(%rsp)
	xorps	%xmm0, %xmm0
	movups	%xmm0, 48(%rsp)
	leaq	15(%rsp), %rdi
	leaq	24(%rsp), %rsi
	callq	_ZN3std2io5Write9write_fmt17h07c47c27ddc1f0fdE
	movq	%rax, 16(%rsp)
	leaq	16(%rsp), %rdi
	callq	_ZN4core3ptr81drop_in_place$LT$core..result..Result$LT$$LP$$RP$$C$std..io..error..Error$GT$$GT$17h38bfc937c0c6ef9eE
	callq	*_ZN3std7process5abort17h06455ad7a7c4a35bE@GOTPCREL(%rip)
.Lfunc_end1:
	.size	_ZN103_$LT$std..sys..thread_local..abort_on_dtor_unwind..DtorUnwindGuard$u20$as$u20$core..ops..drop..Drop$GT$4drop17h3038f8b90ff8dbd3E, .Lfunc_end1-_ZN103_$LT$std..sys..thread_local..abort_on_dtor_unwind..DtorUnwindGuard$u20$as$u20$core..ops..drop..Drop$GT$4drop17h3038f8b90ff8dbd3E
	.cfi_endproc

	.section	".text._ZN10rayon_core4join12join_context28_$u7b$$u7b$closure$u7d$$u7d$17hfc90f6b6884ed1e0E","ax",@progbits
	.p2align	4
	.type	_ZN10rayon_core4join12join_context28_$u7b$$u7b$closure$u7d$$u7d$17hfc90f6b6884ed1e0E,@function
_ZN10rayon_core4join12join_context28_$u7b$$u7b$closure$u7d$$u7d$17hfc90f6b6884ed1e0E:
.Lfunc_begin1:
	.cfi_startproc
	.cfi_personality 155, DW.ref.rust_eh_personality
	.cfi_lsda 27, .Lexception1
	pushq	%rbp
	.cfi_def_cfa_offset 16
	pushq	%r15
	.cfi_def_cfa_offset 24
	pushq	%r14
	.cfi_def_cfa_offset 32
	pushq	%r13
	.cfi_def_cfa_offset 40
	pushq	%r12
	.cfi_def_cfa_offset 48
	pushq	%rbx
	.cfi_def_cfa_offset 56
	subq	$392, %rsp
	.cfi_def_cfa_offset 448
	.cfi_offset %rbx, -56
	.cfi_offset %r12, -48
	.cfi_offset %r13, -40
	.cfi_offset %r14, -32
	.cfi_offset %r15, -24
	.cfi_offset %rbp, -16
	movl	%ecx, %r14d
	movq	%rdx, %r15
	movq	%rsi, %r13
	movq	%rdi, 8(%rsp)
	leaq	272(%rdx), %rax
	movq	256(%rdx), %rcx
	movq	%rax, 176(%rsp)
	movq	$0, 184(%rsp)
	movq	%rcx, 192(%rsp)
	movb	$0, 200(%rsp)
	movups	(%rsi), %xmm0
	movups	16(%rsi), %xmm1
	movups	32(%rsi), %xmm2
	movups	48(%rsi), %xmm3
	movaps	%xmm0, 80(%rsp)
	movaps	%xmm1, 96(%rsp)
	movaps	%xmm2, 112(%rsp)
	movaps	%xmm3, 128(%rsp)
	movq	$0, 144(%rsp)
	movq	280(%rdx), %rax
	movq	264(%rax), %rbx
	movq	256(%rax), %r12
	movq	280(%rdx), %rax
	movq	264(%rax), %rbp
	movq	256(%rax), %rax
	movq	296(%rdx), %rsi
	movq	%rbp, %rcx
	subq	%rax, %rcx
	cmpq	%rsi, %rcx
	jge	.LBB2_1
.LBB2_3:
	subq	%r12, %rbx
	leaq	24(%rsp), %rax
	movq	%rax, 56(%rsp)
	leaq	32(%rsp), %rax
	movq	%rax, 48(%rsp)
	movabsq	$4294967296, %rcx
	movq	288(%r15), %rax
	decq	%rsi
	andq	%rbp, %rsi
	shlq	$4, %rsi
	leaq	_ZN83_$LT$rayon_core..job..StackJob$LT$L$C$F$C$R$GT$$u20$as$u20$rayon_core..job..Job$GT$7execute17h176ce7dd41daf1adE(%rip), %rdx
	movq	%rdx, (%rax,%rsi)
	leaq	80(%rsp), %r12
	movq	%r12, 8(%rax,%rsi)
	#MEMBARRIER
	movq	280(%r15), %rax
	incq	%rbp
	movq	%rbp, 264(%rax)
	movq	272(%r15), %rsi
	leaq	472(%rsi), %rdi
	.p2align	4
.LBB2_4:
	movq	496(%rsi), %rax
	testq	%rcx, %rax
	jne	.LBB2_5
	movq	%rax, %rdx
	orq	%rcx, %rdx
	lock		cmpxchgq	%rdx, 496(%rsi)
	jne	.LBB2_4
	movq	%rdx, %rax
	andq	$65535, %rax
	jne	.LBB2_8
	jmp	.LBB2_11
.LBB2_5:
	movq	%rax, %rdx
	movq	%rdx, %rax
	andq	$65535, %rax
	je	.LBB2_11
.LBB2_8:
	testq	%rbx, %rbx
	jg	.LBB2_9
	shrl	$16, %edx
	cmpl	%eax, %edx
	je	.LBB2_9
.LBB2_11:
	movq	64(%r13), %rax
	movq	72(%r13), %rdx
	movq	80(%r13), %r9
	leaq	96(%r13), %r10
	movq	(%rax), %rsi
	movq	(%rdx), %rcx
	movq	8(%rdx), %r8
.Ltmp34:
	.cfi_escape 0x2e, 0x10
	movzbl	%r14b, %ebp
	leaq	240(%rsp), %rdi
	movq	%rdi, (%rsp)
	movl	%ebp, %edx
	pushq	%r10
	.cfi_adjust_cfa_offset 8
	pushq	88(%r13)
	.cfi_adjust_cfa_offset 8
	callq	_ZN5rayon4iter8plumbing24bridge_producer_consumer6helper17h9b0170937c7e8e08E
	addq	$16, %rsp
	.cfi_adjust_cfa_offset -16
.Ltmp35:
	movq	256(%rsp), %rax
	movaps	240(%rsp), %xmm0
	movaps	%xmm0, 16(%rsp)
	movq	%rax, 32(%rsp)
	leaq	_ZN83_$LT$rayon_core..job..StackJob$LT$L$C$F$C$R$GT$$u20$as$u20$rayon_core..job..Job$GT$7execute17h176ce7dd41daf1adE(%rip), %rbx
	.p2align	4
.LBB2_13:
	movq	184(%rsp), %rax
	cmpq	$3, %rax
	je	.LBB2_22
.Ltmp43:
	.cfi_escape 0x2e, 0x00
	movq	%r15, %rdi
	callq	_ZN10rayon_core8registry12WorkerThread14take_local_job17hb88f9b49feb9a5a1E
.Ltmp44:
	testq	%rax, %rax
	je	.LBB2_36
	movq	%r12, %rcx
	xorq	%rdx, %rcx
	movq	%rax, %rsi
	xorq	%rbx, %rsi
	orq	%rcx, %rsi
	je	.LBB2_27
.Ltmp45:
	.cfi_escape 0x2e, 0x00
	movq	%rdx, %rdi
	callq	*%rax
.Ltmp46:
	jmp	.LBB2_13
.LBB2_36:
	movq	184(%rsp), %rax
	cmpq	$3, %rax
	jne	.LBB2_37
.LBB2_22:
	movq	16(%rsp), %rax
	movq	32(%rsp), %rcx
	movq	%rax, 240(%rsp)
	movq	%rcx, 72(%rsp)
	movq	144(%rsp), %rax
	movq	152(%rsp), %rdi
	movq	160(%rsp), %rsi
	cmpq	$1, %rax
	je	.LBB2_39
	cmpq	$2, %rax
	jne	.LBB2_24
.Ltmp65:
	.cfi_escape 0x2e, 0x00
	callq	*_ZN10rayon_core6unwind16resume_unwinding17he797ce13d2f9ff3cE@GOTPCREL(%rip)
.Ltmp66:
	jmp	.LBB2_25
.LBB2_39:
	movq	168(%rsp), %rax
	movq	32(%rsp), %rcx
	movq	8(%rsp), %rdx
	movq	%rcx, 16(%rdx)
	movaps	16(%rsp), %xmm0
	movups	%xmm0, (%rdx)
	movq	%rdi, 24(%rdx)
	movq	%rsi, 32(%rdx)
	movq	%rax, 40(%rdx)
	jmp	.LBB2_31
.LBB2_27:
	movaps	80(%rsp), %xmm0
	movaps	96(%rsp), %xmm1
	movaps	112(%rsp), %xmm2
	movaps	128(%rsp), %xmm3
	movaps	%xmm0, 240(%rsp)
	movaps	192(%rsp), %xmm0
	movaps	%xmm0, 352(%rsp)
	movaps	176(%rsp), %xmm0
	movaps	%xmm0, 336(%rsp)
	movaps	160(%rsp), %xmm0
	movaps	%xmm0, 320(%rsp)
	movaps	144(%rsp), %xmm0
	movaps	%xmm0, 304(%rsp)
	movaps	%xmm3, 288(%rsp)
	movaps	%xmm2, 272(%rsp)
	movaps	%xmm1, 256(%rsp)
	movq	240(%rsp), %rax
	testq	%rax, %rax
	je	.LBB2_34
	movq	272(%rsp), %r10
	movq	264(%rsp), %r9
	movq	248(%rsp), %rcx
	movq	256(%rsp), %rdx
	movq	136(%rsp), %rsi
	movq	%rsi, 224(%rsp)
	movups	120(%rsp), %xmm0
	movaps	%xmm0, 208(%rsp)
	movq	(%rax), %rsi
	subq	(%rcx), %rsi
	movq	(%rdx), %rcx
	movq	8(%rdx), %r8
.Ltmp48:
	.cfi_escape 0x2e, 0x10
	leaq	208(%rsp), %rax
	leaq	368(%rsp), %rdi
	movl	%ebp, %edx
	pushq	%rax
	.cfi_adjust_cfa_offset 8
	pushq	%r10
	.cfi_adjust_cfa_offset 8
	callq	_ZN5rayon4iter8plumbing24bridge_producer_consumer6helper17h9b0170937c7e8e08E
	addq	$16, %rsp
	.cfi_adjust_cfa_offset -16
.Ltmp49:
	leaq	304(%rsp), %rdi
.Ltmp50:
	.cfi_escape 0x2e, 0x00
	callq	_ZN4core3ptr164drop_in_place$LT$rayon_core..job..JobResult$LT$alloc..collections..linked_list..LinkedList$LT$alloc..vec..Vec$LT$$LP$alloc..string..String$C$f64$RP$$GT$$GT$$GT$$GT$17h79271feb888436daE
.Ltmp51:
	movq	32(%rsp), %rax
	movq	8(%rsp), %rcx
	movq	%rax, 16(%rcx)
	movaps	16(%rsp), %xmm0
	movups	%xmm0, (%rcx)
	movups	368(%rsp), %xmm0
	movups	%xmm0, 24(%rcx)
	movq	384(%rsp), %rax
	movq	%rax, 40(%rcx)
.LBB2_31:
	addq	$392, %rsp
	.cfi_def_cfa_offset 56
	popq	%rbx
	.cfi_def_cfa_offset 48
	popq	%r12
	.cfi_def_cfa_offset 40
	popq	%r13
	.cfi_def_cfa_offset 32
	popq	%r14
	.cfi_def_cfa_offset 24
	popq	%r15
	.cfi_def_cfa_offset 16
	popq	%rbp
	.cfi_def_cfa_offset 8
	retq
.LBB2_9:
	.cfi_def_cfa_offset 448
.Ltmp32:
	.cfi_escape 0x2e, 0x00
	movl	$1, %esi
	callq	*_ZN10rayon_core5sleep5Sleep16wake_any_threads17h7343c157d15decf6E@GOTPCREL(%rip)
.Ltmp33:
	jmp	.LBB2_11
.LBB2_1:
	leaq	280(%r15), %rdi
	addq	%rsi, %rsi
.Ltmp30:
	.cfi_escape 0x2e, 0x00
	callq	_ZN15crossbeam_deque5deque15Worker$LT$T$GT$6resize17h9f1588e7836593f2E
.Ltmp31:
	movq	296(%r15), %rsi
	jmp	.LBB2_3
.LBB2_24:
.Ltmp67:
	.cfi_escape 0x2e, 0x00
	leaq	.Lanon.94be9b806268416248345155c2a8fe89.2(%rip), %rdi
	leaq	.Lanon.94be9b806268416248345155c2a8fe89.4(%rip), %rdx
	movl	$40, %esi
	callq	*_ZN4core9panicking5panic17h13f78b0d410218f2E@GOTPCREL(%rip)
.Ltmp68:
	jmp	.LBB2_25
.LBB2_37:
.Ltmp59:
	.cfi_escape 0x2e, 0x00
	movq	%r15, %rdi
	leaq	184(%rsp), %rsi
	callq	*_ZN10rayon_core8registry12WorkerThread15wait_until_cold17h22ac75dfefddfabaE@GOTPCREL(%rip)
.Ltmp60:
	jmp	.LBB2_22
.LBB2_34:
.Ltmp53:
	.cfi_escape 0x2e, 0x00
	leaq	.Lanon.94be9b806268416248345155c2a8fe89.5(%rip), %rdi
	callq	*_ZN4core6option13unwrap_failed17h5189ee9f1cf5c131E@GOTPCREL(%rip)
.Ltmp54:
	jmp	.LBB2_25
.LBB2_38:
.Ltmp61:
	jmp	.LBB2_21
.LBB2_41:
.Ltmp52:
	movq	%rax, %rbx
	jmp	.LBB2_33
.LBB2_18:
.Ltmp36:
.Ltmp37:
	.cfi_escape 0x2e, 0x00
	movq	%rax, %rdi
	callq	*_ZN3std9panicking12catch_unwind7cleanup17h74caa9c2ada56165E@GOTPCREL(%rip)
.Ltmp38:
.Ltmp40:
	movq	%rdx, %rcx
	.cfi_escape 0x2e, 0x00
	movq	%r15, %rdi
	leaq	176(%rsp), %rsi
	movq	%rax, %rdx
	callq	*_ZN10rayon_core4join23join_recover_from_panic17hccced96645c797c0E@GOTPCREL(%rip)
.Ltmp41:
.LBB2_25:
	ud2
.LBB2_60:
.Ltmp39:
	.cfi_escape 0x2e, 0x00
	callq	*_ZN4core9panicking19panic_cannot_unwind17hf975c85fc7bfab05E@GOTPCREL(%rip)
.LBB2_42:
.Ltmp42:
	movq	%rax, %rbx
	jmp	.LBB2_43
.LBB2_20:
.Ltmp47:
.LBB2_21:
	movq	%rax, %rbx
	.cfi_escape 0x2e, 0x00
	leaq	16(%rsp), %rdi
	callq	_ZN4core3ptr130drop_in_place$LT$alloc..collections..linked_list..LinkedList$LT$alloc..vec..Vec$LT$$LP$alloc..string..String$C$f64$RP$$GT$$GT$$GT$17h296e51bd0818405aE
.LBB2_43:
.Ltmp62:
	leaq	144(%rsp), %rdi
	.cfi_escape 0x2e, 0x00
	callq	_ZN4core3ptr164drop_in_place$LT$rayon_core..job..JobResult$LT$alloc..collections..linked_list..LinkedList$LT$alloc..vec..Vec$LT$$LP$alloc..string..String$C$f64$RP$$GT$$GT$$GT$$GT$17h79271feb888436daE
.Ltmp63:
	jmp	.LBB2_59
.LBB2_40:
.Ltmp64:
	.cfi_escape 0x2e, 0x00
	callq	*_ZN4core9panicking16panic_in_cleanup17h6f48b941993644b5E@GOTPCREL(%rip)
.LBB2_32:
.Ltmp55:
	movq	%rax, %rbx
	leaq	304(%rsp), %rdi
.Ltmp56:
	.cfi_escape 0x2e, 0x00
	callq	_ZN4core3ptr164drop_in_place$LT$rayon_core..job..JobResult$LT$alloc..collections..linked_list..LinkedList$LT$alloc..vec..Vec$LT$$LP$alloc..string..String$C$f64$RP$$GT$$GT$$GT$$GT$17h79271feb888436daE
.Ltmp57:
.LBB2_33:
	leaq	16(%rsp), %rax
	movq	%rax, (%rsp)
	jmp	.LBB2_45
.LBB2_35:
.Ltmp58:
	.cfi_escape 0x2e, 0x00
	callq	*_ZN4core9panicking16panic_in_cleanup17h6f48b941993644b5E@GOTPCREL(%rip)
.LBB2_44:
.Ltmp69:
	movq	%rax, %rbx
	leaq	72(%rsp), %rax
	movq	%rax, 48(%rsp)
	leaq	208(%rsp), %rax
	movq	%rax, 56(%rsp)
.LBB2_45:
	movq	(%rsp), %rax
	movq	(%rax), %r15
	testq	%r15, %r15
	je	.LBB2_59
	movq	%rbx, 64(%rsp)
	movq	48(%rsp), %rax
	movq	(%rax), %rcx
	movq	_RNvCsb3o7Y5DtQ0O_7___rustc14___rust_dealloc@GOTPCREL(%rip), %rbx
	jmp	.LBB2_47
	.p2align	4
.LBB2_57:
	.cfi_escape 0x2e, 0x00
	movl	$40, %esi
	movl	$8, %edx
	movq	%r15, %rdi
	callq	*%rbx
	movq	%rbp, %r15
	testq	%rbp, %rbp
	movq	8(%rsp), %rcx
	je	.LBB2_58
.LBB2_47:
	movq	24(%r15), %rbp
	movq	(%rsp), %rax
	movq	%rbp, (%rax)
	testq	%rbp, %rbp
	je	.LBB2_49
	movq	$0, 32(%rbp)
	jmp	.LBB2_50
	.p2align	4
.LBB2_49:
	movq	56(%rsp), %rax
	movq	$0, (%rax)
.LBB2_50:
	decq	%rcx
	movq	48(%rsp), %rax
	movq	%rcx, 8(%rsp)
	movq	%rcx, (%rax)
	movq	8(%r15), %r12
	movq	16(%r15), %r14
	testq	%r14, %r14
	je	.LBB2_55
	leaq	8(%r12), %r13
	jmp	.LBB2_52
	.p2align	4
.LBB2_54:
	addq	$32, %r13
	decq	%r14
	je	.LBB2_55
.LBB2_52:
	movq	-8(%r13), %rsi
	testq	%rsi, %rsi
	je	.LBB2_54
	movq	(%r13), %rdi
	.cfi_escape 0x2e, 0x00
	movl	$1, %edx
	callq	*%rbx
	jmp	.LBB2_54
	.p2align	4
.LBB2_55:
	movq	(%r15), %rsi
	testq	%rsi, %rsi
	je	.LBB2_57
	shlq	$5, %rsi
	.cfi_escape 0x2e, 0x00
	movl	$8, %edx
	movq	%r12, %rdi
	callq	*%rbx
	jmp	.LBB2_57
.LBB2_58:
	movq	64(%rsp), %rbx
.LBB2_59:
	.cfi_escape 0x2e, 0x00
	movq	%rbx, %rdi
	callq	_Unwind_Resume@PLT
.Lfunc_end2:
	.size	_ZN10rayon_core4join12join_context28_$u7b$$u7b$closure$u7d$$u7d$17hfc90f6b6884ed1e0E, .Lfunc_end2-_ZN10rayon_core4join12join_context28_$u7b$$u7b$closure$u7d$$u7d$17hfc90f6b6884ed1e0E
	.cfi_endproc
	.section	".gcc_except_table._ZN10rayon_core4join12join_context28_$u7b$$u7b$closure$u7d$$u7d$17hfc90f6b6884ed1e0E","a",@progbits
	.p2align	2, 0x0
GCC_except_table2:
.Lexception1:
	.byte	255
	.byte	155
	.uleb128 .Lttbase1-.Lttbaseref1
.Lttbaseref1:
	.byte	1
	.uleb128 .Lcst_end1-.Lcst_begin1
.Lcst_begin1:
	.uleb128 .Ltmp34-.Lfunc_begin1
	.uleb128 .Ltmp35-.Ltmp34
	.uleb128 .Ltmp36-.Lfunc_begin1
	.byte	3
	.uleb128 .Ltmp43-.Lfunc_begin1
	.uleb128 .Ltmp46-.Ltmp43
	.uleb128 .Ltmp47-.Lfunc_begin1
	.byte	0
	.uleb128 .Ltmp65-.Lfunc_begin1
	.uleb128 .Ltmp66-.Ltmp65
	.uleb128 .Ltmp69-.Lfunc_begin1
	.byte	0
	.uleb128 .Ltmp48-.Lfunc_begin1
	.uleb128 .Ltmp49-.Ltmp48
	.uleb128 .Ltmp55-.Lfunc_begin1
	.byte	0
	.uleb128 .Ltmp50-.Lfunc_begin1
	.uleb128 .Ltmp51-.Ltmp50
	.uleb128 .Ltmp52-.Lfunc_begin1
	.byte	0
	.uleb128 .Ltmp32-.Lfunc_begin1
	.uleb128 .Ltmp31-.Ltmp32
	.uleb128 .Ltmp42-.Lfunc_begin1
	.byte	0
	.uleb128 .Ltmp67-.Lfunc_begin1
	.uleb128 .Ltmp68-.Ltmp67
	.uleb128 .Ltmp69-.Lfunc_begin1
	.byte	0
	.uleb128 .Ltmp59-.Lfunc_begin1
	.uleb128 .Ltmp60-.Ltmp59
	.uleb128 .Ltmp61-.Lfunc_begin1
	.byte	0
	.uleb128 .Ltmp53-.Lfunc_begin1
	.uleb128 .Ltmp54-.Ltmp53
	.uleb128 .Ltmp55-.Lfunc_begin1
	.byte	0
	.uleb128 .Ltmp37-.Lfunc_begin1
	.uleb128 .Ltmp38-.Ltmp37
	.uleb128 .Ltmp39-.Lfunc_begin1
	.byte	1
	.uleb128 .Ltmp40-.Lfunc_begin1
	.uleb128 .Ltmp41-.Ltmp40
	.uleb128 .Ltmp42-.Lfunc_begin1
	.byte	0
	.uleb128 .Ltmp62-.Lfunc_begin1
	.uleb128 .Ltmp63-.Ltmp62
	.uleb128 .Ltmp64-.Lfunc_begin1
	.byte	1
	.uleb128 .Ltmp56-.Lfunc_begin1
	.uleb128 .Ltmp57-.Ltmp56
	.uleb128 .Ltmp58-.Lfunc_begin1
	.byte	1
	.uleb128 .Ltmp57-.Lfunc_begin1
	.uleb128 .Lfunc_end2-.Ltmp57
	.byte	0
	.byte	0
.Lcst_end1:
	.byte	127
	.byte	0
	.byte	1
	.byte	0
	.p2align	2, 0x0
	.long	0
.Lttbase1:
	.byte	0
	.p2align	2, 0x0

	.section	.text._ZN10rayon_core8registry12WorkerThread14take_local_job17hb88f9b49feb9a5a1E,"ax",@progbits
	.p2align	4
	.type	_ZN10rayon_core8registry12WorkerThread14take_local_job17hb88f9b49feb9a5a1E,@function
_ZN10rayon_core8registry12WorkerThread14take_local_job17hb88f9b49feb9a5a1E:
	.cfi_startproc
	pushq	%rbp
	.cfi_def_cfa_offset 16
	pushq	%r15
	.cfi_def_cfa_offset 24
	pushq	%r14
	.cfi_def_cfa_offset 32
	pushq	%r13
	.cfi_def_cfa_offset 40
	pushq	%r12
	.cfi_def_cfa_offset 48
	pushq	%rbx
	.cfi_def_cfa_offset 56
	subq	$24, %rsp
	.cfi_def_cfa_offset 80
	.cfi_offset %rbx, -56
	.cfi_offset %r12, -48
	.cfi_offset %r13, -40
	.cfi_offset %r14, -32
	.cfi_offset %r15, -24
	.cfi_offset %rbp, -16
	movq	%rdi, %rbx
	movq	280(%rdi), %rdx
	movq	264(%rdx), %rcx
	movq	256(%rdx), %rsi
	movq	%rcx, %rax
	subq	%rsi, %rax
	testq	%rax, %rax
	jle	.LBB3_8
	cmpb	$1, 304(%rbx)
	jne	.LBB3_5
	leaq	-1(%rcx), %rax
	movq	%rax, 264(%rdx)
	mfence
	movq	280(%rbx), %rdi
	movq	256(%rdi), %r8
	movq	%rax, %rdx
	subq	%r8, %rdx
	js	.LBB3_7
	movq	288(%rbx), %r9
	movq	296(%rbx), %rsi
	leaq	-1(%rsi), %r10
	andq	%rax, %r10
	shlq	$4, %r10
	movq	(%r9,%r10), %r14
	movq	8(%r9,%r10), %r15
	cmpq	%r8, %rax
	jne	.LBB3_12
	lock		cmpxchgq	%rcx, 256(%rdi)
	movq	280(%rbx), %rax
	movq	%rcx, 264(%rax)
	movq	%r14, %rax
	movq	%r15, %rdx
	jne	.LBB3_8
	jmp	.LBB3_37
.LBB3_5:
	movl	$1, %edi
	lock		xaddq	%rdi, 256(%rdx)
	cmpq	%rcx, %rdi
	js	.LBB3_9
	movq	280(%rbx), %rax
	movq	%rdi, 256(%rax)
	jmp	.LBB3_8
.LBB3_7:
	movq	%rcx, 264(%rdi)
.LBB3_8:
	movq	%fs:0, %r13
	addq	_ZN15crossbeam_epoch7default6HANDLE29_$u7b$$u7b$constant$u7d$$u7d$28_$u7b$$u7b$closure$u7d$$u7d$3VAL17hae90390980346752E@GOTTPOFF(%rip), %r13
	movq	_ZN15crossbeam_epoch7default6HANDLE29_$u7b$$u7b$constant$u7d$$u7d$28_$u7b$$u7b$closure$u7d$$u7d$3VAL17hae90390980346752E@GOTTPOFF(%rip), %rbp
	jmp	.LBB3_18
.LBB3_9:
	movq	288(%rbx), %rcx
	movq	296(%rbx), %rsi
	leaq	-1(%rsi), %rdx
	andq	%rdi, %rdx
	shlq	$4, %rdx
	movq	(%rcx,%rdx), %r14
	movq	8(%rcx,%rdx), %rdx
	leaq	3(%rsi), %rcx
	testq	%rsi, %rsi
	cmovnsq	%rsi, %rcx
	cmpq	$65, %rsi
	jb	.LBB3_15
	sarq	$2, %rcx
	cmpq	%rcx, %rax
	jle	.LBB3_40
.LBB3_15:
	movq	%r14, %rax
	jmp	.LBB3_37
.LBB3_12:
	leaq	3(%rsi), %rax
	testq	%rsi, %rsi
	cmovnsq	%rsi, %rax
	cmpq	$65, %rsi
	jb	.LBB3_14
	sarq	$2, %rax
	cmpq	%rax, %rdx
	jl	.LBB3_41
.LBB3_14:
	movq	%r14, %rax
	movq	%r15, %rdx
	jmp	.LBB3_37
.LBB3_16:
	callq	*_ZN15crossbeam_epoch8internal5Local8finalize17h57e1916f70983062E@GOTPCREL(%rip)
	.p2align	4
.LBB3_17:
	cmpl	$2, %r14d
	jne	.LBB3_38
.LBB3_18:
	movq	312(%rbx), %r15
	movq	256(%r15), %r12
	cmpb	$1, %fs:8(%rbp)
	movq	%r13, %rax
	jne	.LBB3_33
.LBB3_19:
	movq	(%rax), %rax
	movq	2072(%rax), %rcx
.LBB3_20:
	testq	%rcx, %rcx
	je	.LBB3_22
	mfence
.LBB3_22:
	callq	_ZN15crossbeam_epoch7default11with_handle17hca130c69a38ee85bE
	movq	%rax, %rdi
	movq	264(%r15), %rax
	subq	%r12, %rax
	testq	%rax, %rax
	jle	.LBB3_29
	movq	128(%r15), %rax
	movq	%rax, %rcx
	andq	$-8, %rcx
	movq	(%rcx), %rsi
	movq	8(%rcx), %rcx
	decq	%rcx
	andq	%r12, %rcx
	shlq	$4, %rcx
	movq	(%rsi,%rcx), %rdx
	movq	8(%rsi,%rcx), %rcx
	movq	128(%r15), %rsi
	movl	$2, %r14d
	cmpq	%rax, %rsi
	jne	.LBB3_30
	leaq	1(%r12), %rsi
	movq	%r12, %rax
	lock		cmpxchgq	%rsi, 256(%r15)
	jne	.LBB3_30
	testq	%rdi, %rdi
	je	.LBB3_36
	movq	2072(%rdi), %rax
	leaq	-1(%rax), %rsi
	movq	%rsi, 2072(%rdi)
	cmpq	$1, %rax
	jne	.LBB3_36
	movq	$0, 2176(%rdi)
	cmpq	$0, 2080(%rdi)
	jne	.LBB3_36
	movl	$1, %r14d
	movq	%rcx, 8(%rsp)
	movq	%rdx, 16(%rsp)
	jmp	.LBB3_16
	.p2align	4
.LBB3_29:
	xorl	%r14d, %r14d
.LBB3_30:
	testq	%rdi, %rdi
	je	.LBB3_17
	movq	2072(%rdi), %rax
	leaq	-1(%rax), %rcx
	movq	%rcx, 2072(%rdi)
	cmpq	$1, %rax
	jne	.LBB3_17
	movq	$0, 2176(%rdi)
	cmpq	$0, 2080(%rdi)
	jne	.LBB3_17
	jmp	.LBB3_16
.LBB3_33:
	movq	%fs:0, %rdi
	addq	%rbp, %rdi
	xorl	%esi, %esi
	callq	_ZN3std3sys12thread_local6native4lazy20Storage$LT$T$C$D$GT$16get_or_init_slow17h838e930766b37d98E
	testq	%rax, %rax
	jne	.LBB3_19
	callq	*_ZN15crossbeam_epoch7default9collector17h5909ee25c42bc166E@GOTPCREL(%rip)
	movq	%rax, %rdi
	callq	*_ZN15crossbeam_epoch9collector9Collector8register17h53950ef5ec61c8dcE@GOTPCREL(%rip)
	movq	2072(%rax), %rcx
	movq	2080(%rax), %rdx
	leaq	-1(%rdx), %rsi
	movq	%rsi, 2080(%rax)
	xorq	$1, %rdx
	orq	%rcx, %rdx
	jne	.LBB3_20
	movq	%rax, %rdi
	callq	*_ZN15crossbeam_epoch8internal5Local8finalize17h57e1916f70983062E@GOTPCREL(%rip)
	jmp	.LBB3_22
.LBB3_36:
	movq	%rdx, %rax
	movq	%rcx, %rdx
.LBB3_37:
	addq	$24, %rsp
	.cfi_def_cfa_offset 56
	popq	%rbx
	.cfi_def_cfa_offset 48
	popq	%r12
	.cfi_def_cfa_offset 40
	popq	%r13
	.cfi_def_cfa_offset 32
	popq	%r14
	.cfi_def_cfa_offset 24
	popq	%r15
	.cfi_def_cfa_offset 16
	popq	%rbp
	.cfi_def_cfa_offset 8
	retq
.LBB3_38:
	.cfi_def_cfa_offset 80
	testq	%r14, %r14
	movq	16(%rsp), %rax
	movq	8(%rsp), %rdx
	jne	.LBB3_37
	xorl	%eax, %eax
	jmp	.LBB3_37
.LBB3_40:
	shrq	%rsi
	addq	$280, %rbx
	movq	%rbx, %rdi
	movq	%rdx, %rbx
	callq	_ZN15crossbeam_deque5deque15Worker$LT$T$GT$6resize17h9f1588e7836593f2E
	movq	%rbx, %rdx
	movq	%r14, %rax
	jmp	.LBB3_37
.LBB3_41:
	shrq	%rsi
	addq	$280, %rbx
	movq	%rbx, %rdi
	callq	_ZN15crossbeam_deque5deque15Worker$LT$T$GT$6resize17h9f1588e7836593f2E
	jmp	.LBB3_14
.Lfunc_end3:
	.size	_ZN10rayon_core8registry12WorkerThread14take_local_job17hb88f9b49feb9a5a1E, .Lfunc_end3-_ZN10rayon_core8registry12WorkerThread14take_local_job17hb88f9b49feb9a5a1E
	.cfi_endproc

	.section	.text.unlikely._ZN10rayon_core8registry8Registry14in_worker_cold17h29de29d038570c1aE,"ax",@progbits
	.p2align	4
	.type	_ZN10rayon_core8registry8Registry14in_worker_cold17h29de29d038570c1aE,@function
_ZN10rayon_core8registry8Registry14in_worker_cold17h29de29d038570c1aE:
.Lfunc_begin2:
	.cfi_startproc
	.cfi_personality 155, DW.ref.rust_eh_personality
	.cfi_lsda 27, .Lexception2
	pushq	%r14
	.cfi_def_cfa_offset 16
	pushq	%rbx
	.cfi_def_cfa_offset 24
	subq	$184, %rsp
	.cfi_def_cfa_offset 208
	.cfi_offset %rbx, -24
	.cfi_offset %r14, -16
	movq	%rsi, %rax
	movq	%fs:0, %rcx
	addq	_ZN10rayon_core8registry8Registry14in_worker_cold10LOCK_LATCH29_$u7b$$u7b$constant$u7d$$u7d$28_$u7b$$u7b$closure$u7d$$u7d$3VAL17h45a5f59326b01f47E@GOTTPOFF(%rip), %rcx
	movq	%rdi, %rbx
	movq	%rcx, (%rsp)
	movups	(%rdx), %xmm0
	movups	16(%rdx), %xmm1
	movups	32(%rdx), %xmm2
	movups	48(%rdx), %xmm3
	movups	%xmm0, 8(%rsp)
	movups	%xmm1, 24(%rsp)
	movups	%xmm2, 40(%rsp)
	movups	%xmm3, 56(%rsp)
	movups	64(%rdx), %xmm0
	movups	%xmm0, 72(%rsp)
	movups	80(%rdx), %xmm0
	movups	%xmm0, 88(%rsp)
	movups	96(%rdx), %xmm0
	movups	%xmm0, 104(%rsp)
	movq	112(%rdx), %rcx
	movq	%rcx, 120(%rsp)
	leaq	128(%rsp), %r14
	movq	$0, 128(%rsp)
.Ltmp70:
	leaq	_ZN83_$LT$rayon_core..job..StackJob$LT$L$C$F$C$R$GT$$u20$as$u20$rayon_core..job..Job$GT$7execute17hdccb2ee5b6e1dc6cE(%rip), %rsi
	movq	%rsp, %rdx
	movq	%rax, %rdi
	callq	*_ZN10rayon_core8registry8Registry6inject17h3f56d863bac0ed83E@GOTPCREL(%rip)
.Ltmp71:
	movq	(%rsp), %rdi
.Ltmp72:
	callq	*_ZN10rayon_core5latch9LockLatch14wait_and_reset17h23df21e6f8db00f8E@GOTPCREL(%rip)
.Ltmp73:
	movq	128(%rsp), %rax
	movdqu	136(%rsp), %xmm0
	cmpq	$1, %rax
	je	.LBB4_8
	cmpq	$2, %rax
	jne	.LBB4_9
	movq	%xmm0, %rdi
	pshufd	$238, %xmm0, %xmm0
	movq	%xmm0, %rsi
	callq	*_ZN10rayon_core6unwind16resume_unwinding17he797ce13d2f9ff3cE@GOTPCREL(%rip)
.LBB4_8:
	movups	152(%rsp), %xmm1
	movups	168(%rsp), %xmm2
	movups	%xmm2, 32(%rbx)
	movups	%xmm1, 16(%rbx)
	movdqu	%xmm0, (%rbx)
	addq	$184, %rsp
	.cfi_def_cfa_offset 24
	popq	%rbx
	.cfi_def_cfa_offset 16
	popq	%r14
	.cfi_def_cfa_offset 8
	retq
.LBB4_9:
	.cfi_def_cfa_offset 208
	leaq	.Lanon.94be9b806268416248345155c2a8fe89.2(%rip), %rdi
	leaq	.Lanon.94be9b806268416248345155c2a8fe89.4(%rip), %rdx
	movl	$40, %esi
	callq	*_ZN4core9panicking5panic17h13f78b0d410218f2E@GOTPCREL(%rip)
.LBB4_6:
.Ltmp74:
	movq	%rax, %rbx
.Ltmp75:
	movq	%r14, %rdi
	callq	_ZN4core3ptr284drop_in_place$LT$rayon_core..job..JobResult$LT$$LP$alloc..collections..linked_list..LinkedList$LT$alloc..vec..Vec$LT$$LP$alloc..string..String$C$f64$RP$$GT$$GT$$C$alloc..collections..linked_list..LinkedList$LT$alloc..vec..Vec$LT$$LP$alloc..string..String$C$f64$RP$$GT$$GT$$RP$$GT$$GT$17h326ee28ce1f5fe41E
.Ltmp76:
	movq	%rbx, %rdi
	callq	_Unwind_Resume@PLT
.LBB4_5:
.Ltmp77:
	callq	*_ZN4core9panicking16panic_in_cleanup17h6f48b941993644b5E@GOTPCREL(%rip)
.Lfunc_end4:
	.size	_ZN10rayon_core8registry8Registry14in_worker_cold17h29de29d038570c1aE, .Lfunc_end4-_ZN10rayon_core8registry8Registry14in_worker_cold17h29de29d038570c1aE
	.cfi_endproc
	.section	.gcc_except_table._ZN10rayon_core8registry8Registry14in_worker_cold17h29de29d038570c1aE,"a",@progbits
	.p2align	2, 0x0
GCC_except_table4:
.Lexception2:
	.byte	255
	.byte	155
	.uleb128 .Lttbase2-.Lttbaseref2
.Lttbaseref2:
	.byte	1
	.uleb128 .Lcst_end2-.Lcst_begin2
.Lcst_begin2:
	.uleb128 .Ltmp70-.Lfunc_begin2
	.uleb128 .Ltmp73-.Ltmp70
	.uleb128 .Ltmp74-.Lfunc_begin2
	.byte	0
	.uleb128 .Ltmp73-.Lfunc_begin2
	.uleb128 .Ltmp75-.Ltmp73
	.byte	0
	.byte	0
	.uleb128 .Ltmp75-.Lfunc_begin2
	.uleb128 .Ltmp76-.Ltmp75
	.uleb128 .Ltmp77-.Lfunc_begin2
	.byte	1
	.uleb128 .Ltmp76-.Lfunc_begin2
	.uleb128 .Lfunc_end4-.Ltmp76
	.byte	0
	.byte	0
.Lcst_end2:
	.byte	127
	.byte	0
	.p2align	2, 0x0
.Lttbase2:
	.byte	0
	.p2align	2, 0x0

	.section	.text.unlikely._ZN10rayon_core8registry8Registry15in_worker_cross17hffc60fc10c37efdeE,"ax",@progbits
	.p2align	4
	.type	_ZN10rayon_core8registry8Registry15in_worker_cross17hffc60fc10c37efdeE,@function
_ZN10rayon_core8registry8Registry15in_worker_cross17hffc60fc10c37efdeE:
.Lfunc_begin3:
	.cfi_startproc
	.cfi_personality 155, DW.ref.rust_eh_personality
	.cfi_lsda 27, .Lexception3
	pushq	%r15
	.cfi_def_cfa_offset 16
	pushq	%r14
	.cfi_def_cfa_offset 24
	pushq	%rbx
	.cfi_def_cfa_offset 32
	subq	$208, %rsp
	.cfi_def_cfa_offset 240
	.cfi_offset %rbx, -32
	.cfi_offset %r14, -24
	.cfi_offset %r15, -16
	movq	%rdx, %r14
	movq	%rsi, %rax
	movq	%rdi, %rbx
	addq	$272, %rdx
	movq	256(%r14), %rsi
	movq	%rdx, 176(%rsp)
	movq	$0, 184(%rsp)
	movq	%rsi, 192(%rsp)
	movb	$1, 200(%rsp)
	movups	(%rcx), %xmm0
	movups	16(%rcx), %xmm1
	movups	32(%rcx), %xmm2
	movups	48(%rcx), %xmm3
	movaps	%xmm0, (%rsp)
	movaps	%xmm1, 16(%rsp)
	movaps	%xmm2, 32(%rsp)
	movaps	%xmm3, 48(%rsp)
	movups	64(%rcx), %xmm0
	movaps	%xmm0, 64(%rsp)
	movups	80(%rcx), %xmm0
	movaps	%xmm0, 80(%rsp)
	movups	96(%rcx), %xmm0
	movaps	%xmm0, 96(%rsp)
	movq	112(%rcx), %rcx
	movq	%rcx, 112(%rsp)
	leaq	120(%rsp), %r15
	movq	$0, 120(%rsp)
.Ltmp78:
	leaq	_ZN83_$LT$rayon_core..job..StackJob$LT$L$C$F$C$R$GT$$u20$as$u20$rayon_core..job..Job$GT$7execute17h80c2f4ff1791e306E(%rip), %rsi
	movq	%rsp, %rdx
	movq	%rax, %rdi
	callq	*_ZN10rayon_core8registry8Registry6inject17h3f56d863bac0ed83E@GOTPCREL(%rip)
.Ltmp79:
	movq	184(%rsp), %rax
	cmpq	$3, %rax
	jne	.LBB5_2
.LBB5_3:
	movq	120(%rsp), %rax
	movdqa	128(%rsp), %xmm0
	cmpq	$1, %rax
	je	.LBB5_6
	cmpq	$2, %rax
	jne	.LBB5_10
	movq	%xmm0, %rdi
	pshufd	$238, %xmm0, %xmm0
	movq	%xmm0, %rsi
	callq	*_ZN10rayon_core6unwind16resume_unwinding17he797ce13d2f9ff3cE@GOTPCREL(%rip)
.LBB5_6:
	movdqu	%xmm0, (%rbx)
	movaps	144(%rsp), %xmm0
	movaps	160(%rsp), %xmm1
	movups	%xmm0, 16(%rbx)
	movups	%xmm1, 32(%rbx)
	addq	$208, %rsp
	.cfi_def_cfa_offset 32
	popq	%rbx
	.cfi_def_cfa_offset 24
	popq	%r14
	.cfi_def_cfa_offset 16
	popq	%r15
	.cfi_def_cfa_offset 8
	retq
.LBB5_2:
	.cfi_def_cfa_offset 240
.Ltmp80:
	leaq	184(%rsp), %rsi
	movq	%r14, %rdi
	callq	*_ZN10rayon_core8registry12WorkerThread15wait_until_cold17h22ac75dfefddfabaE@GOTPCREL(%rip)
.Ltmp81:
	jmp	.LBB5_3
.LBB5_10:
	leaq	.Lanon.94be9b806268416248345155c2a8fe89.2(%rip), %rdi
	leaq	.Lanon.94be9b806268416248345155c2a8fe89.4(%rip), %rdx
	movl	$40, %esi
	callq	*_ZN4core9panicking5panic17h13f78b0d410218f2E@GOTPCREL(%rip)
.LBB5_8:
.Ltmp82:
	movq	%rax, %rbx
.Ltmp83:
	movq	%r15, %rdi
	callq	_ZN4core3ptr284drop_in_place$LT$rayon_core..job..JobResult$LT$$LP$alloc..collections..linked_list..LinkedList$LT$alloc..vec..Vec$LT$$LP$alloc..string..String$C$f64$RP$$GT$$GT$$C$alloc..collections..linked_list..LinkedList$LT$alloc..vec..Vec$LT$$LP$alloc..string..String$C$f64$RP$$GT$$GT$$RP$$GT$$GT$17h326ee28ce1f5fe41E
.Ltmp84:
	movq	%rbx, %rdi
	callq	_Unwind_Resume@PLT
.LBB5_7:
.Ltmp85:
	callq	*_ZN4core9panicking16panic_in_cleanup17h6f48b941993644b5E@GOTPCREL(%rip)
.Lfunc_end5:
	.size	_ZN10rayon_core8registry8Registry15in_worker_cross17hffc60fc10c37efdeE, .Lfunc_end5-_ZN10rayon_core8registry8Registry15in_worker_cross17hffc60fc10c37efdeE
	.cfi_endproc
	.section	.gcc_except_table._ZN10rayon_core8registry8Registry15in_worker_cross17hffc60fc10c37efdeE,"a",@progbits
	.p2align	2, 0x0
GCC_except_table5:
.Lexception3:
	.byte	255
	.byte	155
	.uleb128 .Lttbase3-.Lttbaseref3
.Lttbaseref3:
	.byte	1
	.uleb128 .Lcst_end3-.Lcst_begin3
.Lcst_begin3:
	.uleb128 .Ltmp78-.Lfunc_begin3
	.uleb128 .Ltmp79-.Ltmp78
	.uleb128 .Ltmp82-.Lfunc_begin3
	.byte	0
	.uleb128 .Ltmp79-.Lfunc_begin3
	.uleb128 .Ltmp80-.Ltmp79
	.byte	0
	.byte	0
	.uleb128 .Ltmp80-.Lfunc_begin3
	.uleb128 .Ltmp81-.Ltmp80
	.uleb128 .Ltmp82-.Lfunc_begin3
	.byte	0
	.uleb128 .Ltmp81-.Lfunc_begin3
	.uleb128 .Ltmp83-.Ltmp81
	.byte	0
	.byte	0
	.uleb128 .Ltmp83-.Lfunc_begin3
	.uleb128 .Ltmp84-.Ltmp83
	.uleb128 .Ltmp85-.Lfunc_begin3
	.byte	1
	.uleb128 .Ltmp84-.Lfunc_begin3
	.uleb128 .Lfunc_end5-.Ltmp84
	.byte	0
	.byte	0
.Lcst_end3:
	.byte	127
	.byte	0
	.p2align	2, 0x0
.Lttbase3:
	.byte	0
	.p2align	2, 0x0

	.section	".text._ZN12clap_builder5error14Error$LT$F$GT$3raw17hc118b6b81e747387E","ax",@progbits
	.p2align	4
	.type	_ZN12clap_builder5error14Error$LT$F$GT$3raw17hc118b6b81e747387E,@function
_ZN12clap_builder5error14Error$LT$F$GT$3raw17hc118b6b81e747387E:
.Lfunc_begin4:
	.cfi_startproc
	.cfi_personality 155, DW.ref.rust_eh_personality
	.cfi_lsda 27, .Lexception4
	pushq	%r15
	.cfi_def_cfa_offset 16
	pushq	%r14
	.cfi_def_cfa_offset 24
	pushq	%r12
	.cfi_def_cfa_offset 32
	pushq	%rbx
	.cfi_def_cfa_offset 40
	subq	$264, %rsp
	.cfi_def_cfa_offset 304
	.cfi_offset %rbx, -40
	.cfi_offset %r12, -32
	.cfi_offset %r14, -24
	.cfi_offset %r15, -16
	movq	%rsi, %rbx
	movq	%rdi, %r14
	movq	$0, 40(%rsp)
	movq	$1, 48(%rsp)
	xorps	%xmm0, %xmm0
	movups	%xmm0, 56(%rsp)
	movq	$8, 72(%rsp)
	movq	$0, 80(%rsp)
	movq	$2, 8(%rsp)
	movq	$0, 112(%rsp)
	movabsq	$-9223372036854775807, %rax
	movq	%rax, 88(%rsp)
	movb	$3, 128(%rsp)
	movb	$3, 132(%rsp)
	movb	$3, 136(%rsp)
	movw	$0, 140(%rsp)
	movb	$3, 142(%rsp)
	movb	$3, 146(%rsp)
	movb	$3, 150(%rsp)
	movw	$0, 154(%rsp)
	movb	$3, 156(%rsp)
	movb	$3, 160(%rsp)
	movb	$3, 164(%rsp)
	movw	$0, 168(%rsp)
	movb	$3, 170(%rsp)
	movb	$3, 174(%rsp)
	movb	$3, 178(%rsp)
	movw	$0, 182(%rsp)
	movb	$3, 184(%rsp)
	movb	$3, 188(%rsp)
	movb	$3, 192(%rsp)
	movw	$0, 196(%rsp)
	movb	$3, 198(%rsp)
	movb	$3, 202(%rsp)
	movb	$3, 206(%rsp)
	movw	$0, 210(%rsp)
	movb	$3, 212(%rsp)
	movb	$3, 216(%rsp)
	movb	$3, 220(%rsp)
	movw	$0, 224(%rsp)
	movb	$3, 226(%rsp)
	movb	$3, 230(%rsp)
	movb	$3, 234(%rsp)
	movw	$0, 238(%rsp)
	movb	$4, 240(%rsp)
	movl	$151126528, 254(%rsp)
	callq	*_RNvCsb3o7Y5DtQ0O_7___rustc35___rust_no_alloc_shim_is_unstable_v2@GOTPCREL(%rip)
	movl	$256, %edi
	movl	$8, %esi
	callq	*_RNvCsb3o7Y5DtQ0O_7___rustc12___rust_alloc@GOTPCREL(%rip)
	testq	%rax, %rax
	je	.LBB6_1
	movq	%rax, %r15
	leaq	8(%rsp), %rsi
	movl	$256, %edx
	movq	%rax, %rdi
	callq	*memcpy@GOTPCREL(%rip)
	callq	*_RNvCsb3o7Y5DtQ0O_7___rustc35___rust_no_alloc_shim_is_unstable_v2@GOTPCREL(%rip)
	movl	$1, %esi
	movq	%rbx, %rdi
	callq	*_RNvCsb3o7Y5DtQ0O_7___rustc12___rust_alloc@GOTPCREL(%rip)
	testq	%rax, %rax
	je	.LBB6_6
	movq	%rax, %r12
	movq	%rax, %rdi
	movq	%r14, %rsi
	movq	%rbx, %rdx
	callq	*memcpy@GOTPCREL(%rip)
	cmpl	$2, (%r15)
	je	.LBB6_10
	movq	8(%r15), %rsi
	testq	%rsi, %rsi
	je	.LBB6_10
	movq	16(%r15), %rdi
	movl	$1, %edx
	callq	*_RNvCsb3o7Y5DtQ0O_7___rustc14___rust_dealloc@GOTPCREL(%rip)
.LBB6_10:
	movq	$0, (%r15)
	movq	%rbx, 8(%r15)
	movq	%r12, 16(%r15)
	movq	%rbx, 24(%r15)
	movq	%r15, %rax
	addq	$264, %rsp
	.cfi_def_cfa_offset 40
	popq	%rbx
	.cfi_def_cfa_offset 32
	popq	%r12
	.cfi_def_cfa_offset 24
	popq	%r14
	.cfi_def_cfa_offset 16
	popq	%r15
	.cfi_def_cfa_offset 8
	retq
.LBB6_1:
	.cfi_def_cfa_offset 304
.Ltmp92:
	movl	$8, %edi
	movl	$256, %esi
	callq	*_ZN5alloc5alloc18handle_alloc_error17h9164725ce4591dacE@GOTPCREL(%rip)
.Ltmp93:
	jmp	.LBB6_2
.LBB6_6:
.Ltmp86:
	leaq	.Lanon.94be9b806268416248345155c2a8fe89.113(%rip), %rdx
	movl	$1, %edi
	movq	%rbx, %rsi
	callq	*_ZN5alloc7raw_vec12handle_error17hc389833aee8d6f48E@GOTPCREL(%rip)
.Ltmp87:
.LBB6_2:
	ud2
.LBB6_11:
.Ltmp88:
	movq	%rax, %rbx
.Ltmp89:
	movq	%r15, %rdi
	callq	_ZN4core3ptr47drop_in_place$LT$clap_builder..error..Error$GT$17hed590fa14dfddc8aE
.Ltmp90:
	jmp	.LBB6_4
.LBB6_12:
.Ltmp91:
	callq	*_ZN4core9panicking16panic_in_cleanup17h6f48b941993644b5E@GOTPCREL(%rip)
.LBB6_3:
.Ltmp94:
	movq	%rax, %rbx
.Ltmp95:
	leaq	8(%rsp), %rdi
	callq	_ZN4core3ptr52drop_in_place$LT$clap_builder..error..ErrorInner$GT$17h3ac7f11ec490aa7cE
.Ltmp96:
.LBB6_4:
	movq	%rbx, %rdi
	callq	_Unwind_Resume@PLT
.LBB6_13:
.Ltmp97:
	callq	*_ZN4core9panicking16panic_in_cleanup17h6f48b941993644b5E@GOTPCREL(%rip)
.Lfunc_end6:
	.size	_ZN12clap_builder5error14Error$LT$F$GT$3raw17hc118b6b81e747387E, .Lfunc_end6-_ZN12clap_builder5error14Error$LT$F$GT$3raw17hc118b6b81e747387E
	.cfi_endproc
	.section	".gcc_except_table._ZN12clap_builder5error14Error$LT$F$GT$3raw17hc118b6b81e747387E","a",@progbits
	.p2align	2, 0x0
GCC_except_table6:
.Lexception4:
	.byte	255
	.byte	155
	.uleb128 .Lttbase4-.Lttbaseref4
.Lttbaseref4:
	.byte	1
	.uleb128 .Lcst_end4-.Lcst_begin4
.Lcst_begin4:
	.uleb128 .Lfunc_begin4-.Lfunc_begin4
	.uleb128 .Ltmp92-.Lfunc_begin4
	.byte	0
	.byte	0
	.uleb128 .Ltmp92-.Lfunc_begin4
	.uleb128 .Ltmp93-.Ltmp92
	.uleb128 .Ltmp94-.Lfunc_begin4
	.byte	0
	.uleb128 .Ltmp86-.Lfunc_begin4
	.uleb128 .Ltmp87-.Ltmp86
	.uleb128 .Ltmp88-.Lfunc_begin4
	.byte	0
	.uleb128 .Ltmp89-.Lfunc_begin4
	.uleb128 .Ltmp90-.Ltmp89
	.uleb128 .Ltmp91-.Lfunc_begin4
	.byte	1
	.uleb128 .Ltmp95-.Lfunc_begin4
	.uleb128 .Ltmp96-.Ltmp95
	.uleb128 .Ltmp97-.Lfunc_begin4
	.byte	1
	.uleb128 .Ltmp96-.Lfunc_begin4
	.uleb128 .Lfunc_end6-.Ltmp96
	.byte	0
	.byte	0
.Lcst_end4:
	.byte	127
	.byte	0
	.p2align	2, 0x0
.Lttbase4:
	.byte	0
	.p2align	2, 0x0

	.section	".text._ZN12clap_builder5error14Error$LT$F$GT$4exit17h4d213c82b429244cE","ax",@progbits
	.p2align	4
	.type	_ZN12clap_builder5error14Error$LT$F$GT$4exit17h4d213c82b429244cE,@function
_ZN12clap_builder5error14Error$LT$F$GT$4exit17h4d213c82b429244cE:
	.cfi_startproc
	pushq	%rbx
	.cfi_def_cfa_offset 16
	subq	$16, %rsp
	.cfi_def_cfa_offset 32
	.cfi_offset %rbx, -16
	movq	%rdi, %rbx
	callq	_ZN12clap_builder5error14Error$LT$F$GT$5print17ha624a8d28698d250E
	movq	%rax, 8(%rsp)
	leaq	8(%rsp), %rdi
	callq	_ZN4core3ptr81drop_in_place$LT$core..result..Result$LT$$LP$$RP$$C$std..io..error..Error$GT$$GT$17h38bfc937c0c6ef9eE
	movq	(%rbx), %rax
	movzbl	249(%rax), %eax
	andb	$29, %al
	xorl	%edi, %edi
	cmpb	$12, %al
	setne	%dil
	addl	%edi, %edi
	callq	*_ZN3std7process4exit17hebb1c4f213cc6579E@GOTPCREL(%rip)
.Lfunc_end7:
	.size	_ZN12clap_builder5error14Error$LT$F$GT$4exit17h4d213c82b429244cE, .Lfunc_end7-_ZN12clap_builder5error14Error$LT$F$GT$4exit17h4d213c82b429244cE
	.cfi_endproc

	.section	".text._ZN12clap_builder5error14Error$LT$F$GT$5print17ha624a8d28698d250E","ax",@progbits
	.p2align	4
	.type	_ZN12clap_builder5error14Error$LT$F$GT$5print17ha624a8d28698d250E,@function
_ZN12clap_builder5error14Error$LT$F$GT$5print17ha624a8d28698d250E:
.Lfunc_begin5:
	.cfi_startproc
	.cfi_personality 155, DW.ref.rust_eh_personality
	.cfi_lsda 27, .Lexception5
	pushq	%rbx
	.cfi_def_cfa_offset 16
	subq	$128, %rsp
	.cfi_def_cfa_offset 144
	.cfi_offset %rbx, -16
	movq	(%rdi), %rbx
	cmpl	$2, (%rbx)
	jne	.LBB8_1
	movq	%rdi, %rsi
	leaq	8(%rsp), %rdi
	callq	*_ZN106_$LT$clap_builder..error..format..RichFormatter$u20$as$u20$clap_builder..error..format..ErrorFormatter$GT$12format_error17h9ef34194a91c1e73E@GOTPCREL(%rip)
	jmp	.LBB8_3
.LBB8_1:
	leaq	120(%rbx), %rdx
	leaq	8(%rsp), %rdi
	movq	%rbx, %rsi
	callq	*_ZN12clap_builder5error7Message9formatted17h5afb1478d9bcc4a4E@GOTPCREL(%rip)
.LBB8_3:
	movzbl	249(%rbx), %eax
	movl	%eax, %ecx
	andb	$30, %cl
	xorl	%edx, %edx
	cmpb	$12, %cl
	sete	%dl
	movzbl	247(%rdx,%rbx), %ecx
	andb	$29, %al
	cmpb	$12, %al
	setne	120(%rsp)
	movb	%cl, 121(%rsp)
	movq	$0, 96(%rsp)
	movq	$1, 104(%rsp)
	movq	$0, 112(%rsp)
	xorl	%eax, %eax
	cmpq	8(%rsp), %rax
	jno	.LBB8_4
	movq	16(%rsp), %rsi
	leaq	.Lanon.94be9b806268416248345155c2a8fe89.19(%rip), %rdx
	leaq	32(%rsp), %rdi
	callq	*_ZN60_$LT$alloc..string..String$u20$as$u20$core..clone..Clone$GT$5clone17hfde881c263d6e4c5E@GOTPCREL(%rip)
	movq	48(%rsp), %rax
	movq	%rax, 80(%rsp)
	movups	32(%rsp), %xmm0
	jmp	.LBB8_6
.LBB8_4:
	movq	24(%rsp), %rax
	movq	%rax, 80(%rsp)
	movups	8(%rsp), %xmm0
.LBB8_6:
	movaps	%xmm0, 64(%rsp)
	leaq	32(%rsp), %rbx
	leaq	96(%rsp), %rsi
	leaq	64(%rsp), %rdx
	movq	%rbx, %rdi
	callq	*_ZN12clap_builder6output3fmt9Colorizer12with_content17hf976c0880685fd50E@GOTPCREL(%rip)
.Ltmp98:
	movq	%rbx, %rdi
	callq	*_ZN12clap_builder6output3fmt9Colorizer5print17h52e29dcfbf1f809bE@GOTPCREL(%rip)
.Ltmp99:
	movq	32(%rsp), %rsi
	testq	%rsi, %rsi
	je	.LBB8_9
	movq	40(%rsp), %rdi
	movl	$1, %edx
	movq	%rax, %rbx
	callq	*_RNvCsb3o7Y5DtQ0O_7___rustc14___rust_dealloc@GOTPCREL(%rip)
	movq	%rbx, %rax
.LBB8_9:
	addq	$128, %rsp
	.cfi_def_cfa_offset 16
	popq	%rbx
	.cfi_def_cfa_offset 8
	retq
.LBB8_10:
	.cfi_def_cfa_offset 144
.Ltmp100:
	movq	%rax, %rbx
	movq	32(%rsp), %rsi
	testq	%rsi, %rsi
	je	.LBB8_12
	movq	40(%rsp), %rdi
	movl	$1, %edx
	callq	*_RNvCsb3o7Y5DtQ0O_7___rustc14___rust_dealloc@GOTPCREL(%rip)
.LBB8_12:
	movq	%rbx, %rdi
	callq	_Unwind_Resume@PLT
.Lfunc_end8:
	.size	_ZN12clap_builder5error14Error$LT$F$GT$5print17ha624a8d28698d250E, .Lfunc_end8-_ZN12clap_builder5error14Error$LT$F$GT$5print17ha624a8d28698d250E
	.cfi_endproc
	.section	".gcc_except_table._ZN12clap_builder5error14Error$LT$F$GT$5print17ha624a8d28698d250E","a",@progbits
	.p2align	2, 0x0
GCC_except_table8:
.Lexception5:
	.byte	255
	.byte	255
	.byte	1
	.uleb128 .Lcst_end5-.Lcst_begin5
.Lcst_begin5:
	.uleb128 .Lfunc_begin5-.Lfunc_begin5
	.uleb128 .Ltmp98-.Lfunc_begin5
	.byte	0
	.byte	0
	.uleb128 .Ltmp98-.Lfunc_begin5
	.uleb128 .Ltmp99-.Ltmp98
	.uleb128 .Ltmp100-.Lfunc_begin5
	.byte	0
	.uleb128 .Ltmp99-.Lfunc_begin5
	.uleb128 .Lfunc_end8-.Ltmp99
	.byte	0
	.byte	0
.Lcst_end5:
	.p2align	2, 0x0

	.section	".text._ZN12clap_builder5error14Error$LT$F$GT$8with_cmd17h226861c154582c8bE","ax",@progbits
	.p2align	4
	.type	_ZN12clap_builder5error14Error$LT$F$GT$8with_cmd17h226861c154582c8bE,@function
_ZN12clap_builder5error14Error$LT$F$GT$8with_cmd17h226861c154582c8bE:
.Lfunc_begin6:
	.cfi_startproc
	.cfi_personality 155, DW.ref.rust_eh_personality
	.cfi_lsda 27, .Lexception6
	pushq	%r15
	.cfi_def_cfa_offset 16
	pushq	%r14
	.cfi_def_cfa_offset 24
	pushq	%r13
	.cfi_def_cfa_offset 32
	pushq	%r12
	.cfi_def_cfa_offset 40
	pushq	%rbx
	.cfi_def_cfa_offset 48
	subq	$240, %rsp
	.cfi_def_cfa_offset 288
	.cfi_offset %rbx, -48
	.cfi_offset %r12, -40
	.cfi_offset %r13, -32
	.cfi_offset %r14, -24
	.cfi_offset %r15, -16
	movq	%rdi, %rbx
	movabsq	$-2896049036370414849, %r12
	movabsq	$-3816321173679807753, %r15
	movq	232(%rsi), %rdx
	movq	240(%rsi), %rax
	shlq	$4, %rax
	movq	$-1, %rdi
	xorl	%r14d, %r14d
	xorl	%ecx, %ecx
	.p2align	4
.LBB9_1:
	cmpq	%rcx, %rax
	je	.LBB9_12
	movq	%rdx, %r8
	addq	$16, %rdx
	addq	$16, %rcx
	incq	%rdi
	cmpq	%r12, (%r8)
	jne	.LBB9_1
	cmpq	%r15, 8(%r8)
	jne	.LBB9_1
	movq	264(%rsi), %rax
	cmpq	%rax, %rdi
	jae	.LBB9_5
	movq	%rsi, %r13
	movq	256(%rsi), %rax
	movq	-32(%rax,%rcx,2), %rdx
	movq	-24(%rax,%rcx,2), %rax
	movq	16(%rax), %rcx
	decq	%rcx
	andq	$-16, %rcx
	leaq	(%rdx,%rcx), %r14
	addq	$16, %r14
.Ltmp103:
	movq	%r14, %rdi
	callq	*24(%rax)
.Ltmp104:
	cmpq	%r12, %rax
	jne	.LBB9_10
	movq	%r13, %rsi
	cmpq	%r15, %rdx
	jne	.LBB9_10
.LBB9_12:
	testq	%r14, %r14
	leaq	.Lanon.94be9b806268416248345155c2a8fe89.20(%rip), %rcx
	cmovneq	%r14, %rcx
	movq	14(%rcx), %rax
	movq	20(%rcx), %rdx
	movq	%rdx, 22(%rsp)
	movq	%rax, 16(%rsp)
	movq	28(%rcx), %rax
	movq	34(%rcx), %rdx
	movq	%rdx, 38(%rsp)
	movq	%rax, 32(%rsp)
	movq	42(%rcx), %rax
	movq	48(%rcx), %rdx
	movq	%rdx, 54(%rsp)
	movq	%rax, 48(%rsp)
	movq	56(%rcx), %rax
	movq	62(%rcx), %rdx
	movq	%rdx, 70(%rsp)
	movq	%rax, 64(%rsp)
	movq	70(%rcx), %rax
	movq	76(%rcx), %rdx
	movq	%rdx, 86(%rsp)
	movq	%rax, 80(%rsp)
	movq	84(%rcx), %rax
	movq	90(%rcx), %rdx
	movq	%rdx, 102(%rsp)
	movq	%rax, 96(%rsp)
	movq	98(%rcx), %rax
	movq	104(%rcx), %rdx
	movq	%rdx, 118(%rsp)
	movq	%rax, 112(%rsp)
	movzbl	112(%rcx), %eax
	cmpb	$4, %al
	je	.LBB9_14
	movq	113(%rcx), %rdx
	movq	118(%rcx), %rdi
	movq	%rdi, 5(%rsp)
	movq	%rdx, (%rsp)
.LBB9_14:
	movq	(%rcx), %rdx
	movq	6(%rcx), %rcx
	movq	%rcx, 134(%rsp)
	movq	%rdx, 128(%rsp)
	movq	16(%rsp), %rcx
	movq	22(%rsp), %rdx
	movq	%rcx, 142(%rsp)
	movq	%rdx, 148(%rsp)
	movq	32(%rsp), %rcx
	movq	38(%rsp), %rdx
	movq	%rcx, 156(%rsp)
	movq	%rdx, 162(%rsp)
	movq	48(%rsp), %rcx
	movq	54(%rsp), %rdx
	movq	%rcx, 170(%rsp)
	movq	%rdx, 176(%rsp)
	movq	64(%rsp), %rcx
	movq	70(%rsp), %rdx
	movq	%rcx, 184(%rsp)
	movq	%rdx, 190(%rsp)
	movq	80(%rsp), %rcx
	movq	86(%rsp), %rdx
	movq	%rdx, 204(%rsp)
	movq	%rcx, 198(%rsp)
	movq	96(%rsp), %rcx
	movq	102(%rsp), %rdx
	movq	%rdx, 218(%rsp)
	movq	%rcx, 212(%rsp)
	movq	112(%rsp), %rcx
	movq	118(%rsp), %rdx
	movq	%rcx, 226(%rsp)
	movq	%rdx, 232(%rsp)
	movl	208(%rsp), %ecx
	movl	%ecx, 200(%rbx)
	movq	212(%rsp), %rcx
	movq	%rcx, 204(%rbx)
	movl	220(%rsp), %ecx
	movl	%ecx, 212(%rbx)
	movzwl	224(%rsp), %ecx
	movw	%cx, 216(%rbx)
	movq	226(%rsp), %rcx
	movq	%rcx, 218(%rbx)
	movl	234(%rsp), %ecx
	movl	%ecx, 226(%rbx)
	movzwl	238(%rsp), %ecx
	movw	%cx, 230(%rbx)
	movups	192(%rsp), %xmm0
	movups	%xmm0, 184(%rbx)
	movups	128(%rsp), %xmm0
	movups	144(%rsp), %xmm1
	movups	160(%rsp), %xmm2
	movups	176(%rsp), %xmm3
	movups	%xmm3, 168(%rbx)
	movups	%xmm2, 152(%rbx)
	movups	%xmm1, 136(%rbx)
	movups	%xmm0, 120(%rbx)
	movb	%al, 232(%rbx)
	movq	(%rsp), %rax
	movq	5(%rsp), %rcx
	movq	%rax, 233(%rbx)
	movq	%rcx, 238(%rbx)
	movl	700(%rsi), %ecx
	movb	$2, %al
	movb	$2, %dil
	testl	$536870912, %ecx
	jne	.LBB9_17
	movl	704(%rsi), %edx
	testl	$536870912, %edx
	jne	.LBB9_17
	orl	%ecx, %edx
	shrl	$28, %edx
	andb	$1, %dl
	movl	%edx, %edi
.LBB9_17:
	movb	%dil, 247(%rbx)
	testl	$262144, %ecx
	jne	.LBB9_21
	movl	704(%rsi), %edx
	testl	$262144, %edx
	jne	.LBB9_21
	orl	%ecx, %edx
	testl	$536870912, %edx
	jne	.LBB9_21
	shrl	$28, %edx
	andb	$1, %dl
	movl	%edx, %eax
.LBB9_21:
	movb	%al, 248(%rbx)
.Ltmp110:
	leaq	128(%rsp), %rdi
	callq	*_ZN12clap_builder5error6format13get_help_flag17h445bd13211d5c44dE@GOTPCREL(%rip)
.Ltmp111:
	leaq	80(%rbx), %r14
	movq	80(%rbx), %rsi
	movabsq	$-9223372036854775806, %rax
	cmpq	%rax, %rsi
	jl	.LBB9_25
	testq	%rsi, %rsi
	je	.LBB9_25
	movq	88(%rbx), %rdi
	movl	$1, %edx
	callq	*_RNvCsb3o7Y5DtQ0O_7___rustc14___rust_dealloc@GOTPCREL(%rip)
.LBB9_25:
	movq	144(%rsp), %rax
	movq	%rax, 16(%r14)
	movups	128(%rsp), %xmm0
	movups	%xmm0, (%r14)
	movq	%rbx, %rax
	addq	$240, %rsp
	.cfi_def_cfa_offset 48
	popq	%rbx
	.cfi_def_cfa_offset 40
	popq	%r12
	.cfi_def_cfa_offset 32
	popq	%r13
	.cfi_def_cfa_offset 24
	popq	%r14
	.cfi_def_cfa_offset 16
	popq	%r15
	.cfi_def_cfa_offset 8
	retq
.LBB9_10:
	.cfi_def_cfa_offset 288
.Ltmp105:
	leaq	.Lanon.94be9b806268416248345155c2a8fe89.29(%rip), %rdi
	leaq	.Lanon.94be9b806268416248345155c2a8fe89.31(%rip), %rdx
	movl	$34, %esi
	callq	*_ZN4core6option13expect_failed17h50b71e74d7945a60E@GOTPCREL(%rip)
.Ltmp106:
	jmp	.LBB9_6
.LBB9_5:
.Ltmp101:
	leaq	.Lanon.94be9b806268416248345155c2a8fe89.15(%rip), %rdx
	movq	%rax, %rsi
	callq	*_ZN4core9panicking18panic_bounds_check17hd2a839eda26feb6eE@GOTPCREL(%rip)
.Ltmp102:
.LBB9_6:
	ud2
.LBB9_26:
.Ltmp112:
	movq	%rax, %r14
.Ltmp113:
	movq	%rbx, %rdi
	callq	_ZN4core3ptr47drop_in_place$LT$clap_builder..error..Error$GT$17hed590fa14dfddc8aE
.Ltmp114:
	jmp	.LBB9_27
.LBB9_11:
.Ltmp107:
	movq	%rax, %r14
.Ltmp108:
	movq	%rbx, %rdi
	callq	_ZN4core3ptr47drop_in_place$LT$clap_builder..error..Error$GT$17hed590fa14dfddc8aE
.Ltmp109:
.LBB9_27:
	movq	%r14, %rdi
	callq	_Unwind_Resume@PLT
.LBB9_28:
.Ltmp115:
	callq	*_ZN4core9panicking16panic_in_cleanup17h6f48b941993644b5E@GOTPCREL(%rip)
.Lfunc_end9:
	.size	_ZN12clap_builder5error14Error$LT$F$GT$8with_cmd17h226861c154582c8bE, .Lfunc_end9-_ZN12clap_builder5error14Error$LT$F$GT$8with_cmd17h226861c154582c8bE
	.cfi_endproc
	.section	".gcc_except_table._ZN12clap_builder5error14Error$LT$F$GT$8with_cmd17h226861c154582c8bE","a",@progbits
	.p2align	2, 0x0
GCC_except_table9:
.Lexception6:
	.byte	255
	.byte	155
	.uleb128 .Lttbase5-.Lttbaseref5
.Lttbaseref5:
	.byte	1
	.uleb128 .Lcst_end6-.Lcst_begin6
.Lcst_begin6:
	.uleb128 .Ltmp103-.Lfunc_begin6
	.uleb128 .Ltmp104-.Ltmp103
	.uleb128 .Ltmp107-.Lfunc_begin6
	.byte	0
	.uleb128 .Ltmp110-.Lfunc_begin6
	.uleb128 .Ltmp111-.Ltmp110
	.uleb128 .Ltmp112-.Lfunc_begin6
	.byte	0
	.uleb128 .Ltmp105-.Lfunc_begin6
	.uleb128 .Ltmp102-.Ltmp105
	.uleb128 .Ltmp107-.Lfunc_begin6
	.byte	0
	.uleb128 .Ltmp113-.Lfunc_begin6
	.uleb128 .Ltmp109-.Ltmp113
	.uleb128 .Ltmp115-.Lfunc_begin6
	.byte	1
	.uleb128 .Ltmp109-.Lfunc_begin6
	.uleb128 .Lfunc_end9-.Ltmp109
	.byte	0
	.byte	0
.Lcst_end6:
	.byte	127
	.byte	0
	.p2align	2, 0x0
.Lttbase5:
	.byte	0
	.p2align	2, 0x0

	.section	.text._ZN12clap_builder6derive12format_error17hc0ad13564134ac2aE,"ax",@progbits
	.p2align	4
	.type	_ZN12clap_builder6derive12format_error17hc0ad13564134ac2aE,@function
_ZN12clap_builder6derive12format_error17hc0ad13564134ac2aE:
.Lfunc_begin7:
	.cfi_startproc
	.cfi_personality 155, DW.ref.rust_eh_personality
	.cfi_lsda 27, .Lexception7
	pushq	%r14
	.cfi_def_cfa_offset 16
	pushq	%rbx
	.cfi_def_cfa_offset 24
	subq	$776, %rsp
	.cfi_def_cfa_offset 800
	.cfi_offset %rbx, -24
	.cfi_offset %r14, -16
	movq	%rdi, %rbx
.Ltmp116:
	leaq	64(%rsp), %rdi
	callq	_ZN82_$LT$rust_strengths_demo..Args$u20$as$u20$clap_builder..derive..CommandFactory$GT$7command17h400d3e7233d6c50aE
.Ltmp117:
.Ltmp121:
	leaq	64(%rsp), %rdi
	xorl	%esi, %esi
	callq	*_ZN12clap_builder7builder7command7Command11_build_self17h80b088ad8d7b0135E@GOTPCREL(%rip)
.Ltmp122:
.Ltmp123:
	leaq	8(%rsp), %rdi
	leaq	64(%rsp), %rsi
	callq	*_ZN12clap_builder7builder7command7Command13render_usage_17hea7a214f308b00deE@GOTPCREL(%rip)
.Ltmp124:
	cmpl	$2, (%rbx)
	jne	.LBB10_4
.Ltmp135:
	leaq	64(%rsp), %rsi
	movq	%rbx, %rdi
	callq	_ZN12clap_builder5error14Error$LT$F$GT$8with_cmd17h226861c154582c8bE
.Ltmp136:
	movq	8(%rsp), %rsi
	leaq	(,%rsi,2), %rax
	testq	%rax, %rax
	je	.LBB10_6
	movq	16(%rsp), %rdi
	movl	$1, %edx
	callq	*_RNvCsb3o7Y5DtQ0O_7___rustc14___rust_dealloc@GOTPCREL(%rip)
	jmp	.LBB10_6
.LBB10_4:
	movq	24(%rsp), %rax
	movq	%rax, 48(%rsp)
	movups	8(%rsp), %xmm0
	movaps	%xmm0, 32(%rsp)
.Ltmp126:
	leaq	64(%rsp), %rsi
	leaq	32(%rsp), %rdx
	movq	%rbx, %rdi
	callq	*_ZN12clap_builder5error7Message6format17h4bfbee47c9173255E@GOTPCREL(%rip)
.Ltmp127:
.Ltmp132:
	leaq	64(%rsp), %rsi
	movq	%rbx, %rdi
	callq	_ZN12clap_builder5error14Error$LT$F$GT$8with_cmd17h226861c154582c8bE
.Ltmp133:
.LBB10_6:
	leaq	64(%rsp), %rdi
	callq	_ZN4core3ptr60drop_in_place$LT$clap_builder..builder..command..Command$GT$17h2a1c58f2a08832bcE
	movq	%rbx, %rax
	addq	$776, %rsp
	.cfi_def_cfa_offset 24
	popq	%rbx
	.cfi_def_cfa_offset 16
	popq	%r14
	.cfi_def_cfa_offset 8
	retq
.LBB10_16:
	.cfi_def_cfa_offset 800
.Ltmp134:
	movq	%rax, %r14
	jmp	.LBB10_17
.LBB10_7:
.Ltmp128:
	jmp	.LBB10_15
.LBB10_11:
.Ltmp137:
	movq	%rax, %r14
	movq	8(%rsp), %rsi
	leaq	(,%rsi,2), %rax
	testq	%rax, %rax
	je	.LBB10_17
	movq	16(%rsp), %rdi
	movl	$1, %edx
	callq	*_RNvCsb3o7Y5DtQ0O_7___rustc14___rust_dealloc@GOTPCREL(%rip)
	jmp	.LBB10_17
.LBB10_19:
.Ltmp118:
	movq	%rax, %r14
.Ltmp119:
	movq	%rbx, %rdi
	callq	_ZN4core3ptr47drop_in_place$LT$clap_builder..error..Error$GT$17hed590fa14dfddc8aE
.Ltmp120:
	jmp	.LBB10_18
.LBB10_14:
.Ltmp125:
.LBB10_15:
	movq	%rax, %r14
.Ltmp129:
	movq	%rbx, %rdi
	callq	_ZN4core3ptr47drop_in_place$LT$clap_builder..error..Error$GT$17hed590fa14dfddc8aE
.Ltmp130:
.LBB10_17:
.Ltmp138:
	leaq	64(%rsp), %rdi
	callq	_ZN4core3ptr60drop_in_place$LT$clap_builder..builder..command..Command$GT$17h2a1c58f2a08832bcE
.Ltmp139:
.LBB10_18:
	movq	%r14, %rdi
	callq	_Unwind_Resume@PLT
.LBB10_13:
.Ltmp131:
	callq	*_ZN4core9panicking16panic_in_cleanup17h6f48b941993644b5E@GOTPCREL(%rip)
.LBB10_20:
.Ltmp140:
	callq	*_ZN4core9panicking16panic_in_cleanup17h6f48b941993644b5E@GOTPCREL(%rip)
.Lfunc_end10:
	.size	_ZN12clap_builder6derive12format_error17hc0ad13564134ac2aE, .Lfunc_end10-_ZN12clap_builder6derive12format_error17hc0ad13564134ac2aE
	.cfi_endproc
	.section	.gcc_except_table._ZN12clap_builder6derive12format_error17hc0ad13564134ac2aE,"a",@progbits
	.p2align	2, 0x0
GCC_except_table10:
.Lexception7:
	.byte	255
	.byte	155
	.uleb128 .Lttbase6-.Lttbaseref6
.Lttbaseref6:
	.byte	1
	.uleb128 .Lcst_end7-.Lcst_begin7
.Lcst_begin7:
	.uleb128 .Ltmp116-.Lfunc_begin7
	.uleb128 .Ltmp117-.Ltmp116
	.uleb128 .Ltmp118-.Lfunc_begin7
	.byte	0
	.uleb128 .Ltmp121-.Lfunc_begin7
	.uleb128 .Ltmp124-.Ltmp121
	.uleb128 .Ltmp125-.Lfunc_begin7
	.byte	0
	.uleb128 .Ltmp135-.Lfunc_begin7
	.uleb128 .Ltmp136-.Ltmp135
	.uleb128 .Ltmp137-.Lfunc_begin7
	.byte	0
	.uleb128 .Ltmp126-.Lfunc_begin7
	.uleb128 .Ltmp127-.Ltmp126
	.uleb128 .Ltmp128-.Lfunc_begin7
	.byte	0
	.uleb128 .Ltmp132-.Lfunc_begin7
	.uleb128 .Ltmp133-.Ltmp132
	.uleb128 .Ltmp134-.Lfunc_begin7
	.byte	0
	.uleb128 .Ltmp133-.Lfunc_begin7
	.uleb128 .Ltmp119-.Ltmp133
	.byte	0
	.byte	0
	.uleb128 .Ltmp119-.Lfunc_begin7
	.uleb128 .Ltmp120-.Ltmp119
	.uleb128 .Ltmp140-.Lfunc_begin7
	.byte	1
	.uleb128 .Ltmp129-.Lfunc_begin7
	.uleb128 .Ltmp130-.Ltmp129
	.uleb128 .Ltmp131-.Lfunc_begin7
	.byte	1
	.uleb128 .Ltmp138-.Lfunc_begin7
	.uleb128 .Ltmp139-.Ltmp138
	.uleb128 .Ltmp140-.Lfunc_begin7
	.byte	1
	.uleb128 .Ltmp139-.Lfunc_begin7
	.uleb128 .Lfunc_end10-.Ltmp139
	.byte	0
	.byte	0
.Lcst_end7:
	.byte	127
	.byte	0
	.p2align	2, 0x0
.Lttbase6:
	.byte	0
	.p2align	2, 0x0

	.section	.text._ZN12clap_builder6parser7matches11arg_matches10ArgMatches14try_remove_one17he5ecbdccbe89b4e6E,"ax",@progbits
	.p2align	4
	.type	_ZN12clap_builder6parser7matches11arg_matches10ArgMatches14try_remove_one17he5ecbdccbe89b4e6E,@function
_ZN12clap_builder6parser7matches11arg_matches10ArgMatches14try_remove_one17he5ecbdccbe89b4e6E:
.Lfunc_begin8:
	.cfi_startproc
	.cfi_personality 155, DW.ref.rust_eh_personality
	.cfi_lsda 27, .Lexception8
	pushq	%rbp
	.cfi_def_cfa_offset 16
	pushq	%r15
	.cfi_def_cfa_offset 24
	pushq	%r14
	.cfi_def_cfa_offset 32
	pushq	%r13
	.cfi_def_cfa_offset 40
	pushq	%r12
	.cfi_def_cfa_offset 48
	pushq	%rbx
	.cfi_def_cfa_offset 56
	subq	$584, %rsp
	.cfi_def_cfa_offset 640
	.cfi_offset %rbx, -56
	.cfi_offset %r12, -48
	.cfi_offset %r13, -40
	.cfi_offset %r14, -32
	.cfi_offset %r15, -24
	.cfi_offset %rbp, -16
	movq	%rdx, 104(%rsp)
	movq	%rdi, 136(%rsp)
	movq	%rsi, 120(%rsp)
	movq	16(%rsi), %rax
	movq	%rax, 128(%rsp)
	testq	%rax, %rax
	je	.LBB11_8
	movq	%rcx, %r15
	movq	120(%rsp), %rax
	movq	8(%rax), %rcx
	movq	128(%rsp), %rbx
	shlq	$4, %rbx
	movq	%rbx, 112(%rsp)
	negq	%rbx
	xorl	%r12d, %r12d
	xorl	%r13d, %r13d
	xorl	%r14d, %r14d
	jmp	.LBB11_3
	.p2align	4
.LBB11_2:
	incq	%r14
	addq	$16, %r13
	addq	$104, %r12
	movq	%rbx, %rax
	addq	%r13, %rax
	je	.LBB11_8
.LBB11_3:
	cmpq	%r15, 8(%rcx,%r13)
	jne	.LBB11_2
	movq	(%rcx,%r13), %rdi
	movq	104(%rsp), %rsi
	movq	%r15, %rdx
	movq	%rcx, %rbp
	callq	*bcmp@GOTPCREL(%rip)
	movq	%rbp, %rcx
	testl	%eax, %eax
	jne	.LBB11_2
	movq	128(%rsp), %rbx
	cmpq	%rbx, %r14
	jae	.LBB11_68
	leaq	(%rcx,%r13), %rdi
	movq	(%rcx,%r13), %rax
	movq	%rax, 192(%rsp)
	movq	8(%rcx,%r13), %rax
	movq	%rax, 184(%rsp)
	leaq	(%rcx,%r13), %rsi
	addq	$16, %rsi
	movq	112(%rsp), %rdx
	subq	%r13, %rdx
	addq	$-16, %rdx
	callq	*memmove@GOTPCREL(%rip)
	leaq	-1(%rbx), %rax
	movq	120(%rsp), %rbx
	movq	%rax, 104(%rsp)
	movq	%rax, 16(%rbx)
	movq	40(%rbx), %r13
	movq	%r13, %rax
	subq	%r14, %rax
	jbe	.LBB11_69
	movq	32(%rbx), %r15
	leaq	(%r15,%r12), %rdi
	movq	(%r15,%r12), %r14
	movups	88(%r15,%r12), %xmm0
	movaps	%xmm0, 80(%rsp)
	movups	72(%r15,%r12), %xmm0
	movaps	%xmm0, 64(%rsp)
	movups	56(%r15,%r12), %xmm0
	movaps	%xmm0, 48(%rsp)
	movups	40(%r15,%r12), %xmm0
	movaps	%xmm0, 32(%rsp)
	movups	24(%r15,%r12), %xmm0
	movaps	%xmm0, 16(%rsp)
	movups	8(%r15,%r12), %xmm0
	movaps	%xmm0, (%rsp)
	leaq	(%r15,%r12), %rsi
	addq	$104, %rsi
	imulq	$104, %rax, %rdx
	addq	$-104, %rdx
	callq	*memmove@GOTPCREL(%rip)
	decq	%r13
	movq	%r13, 40(%rbx)
	cmpq	$2, %r14
	jne	.LBB11_10
.LBB11_8:
	movq	136(%rsp), %rax
	movq	$0, 8(%rax)
	movq	$2, (%rax)
.LBB11_9:
	addq	$584, %rsp
	.cfi_def_cfa_offset 56
	popq	%rbx
	.cfi_def_cfa_offset 48
	popq	%r12
	.cfi_def_cfa_offset 40
	popq	%r13
	.cfi_def_cfa_offset 32
	popq	%r14
	.cfi_def_cfa_offset 24
	popq	%r15
	.cfi_def_cfa_offset 16
	popq	%rbp
	.cfi_def_cfa_offset 8
	retq
.LBB11_10:
	.cfi_def_cfa_offset 640
	movaps	80(%rsp), %xmm0
	movups	%xmm0, 288(%rsp)
	movaps	64(%rsp), %xmm0
	movups	%xmm0, 272(%rsp)
	movaps	(%rsp), %xmm0
	movaps	16(%rsp), %xmm1
	movaps	32(%rsp), %xmm2
	movaps	48(%rsp), %xmm3
	movups	%xmm3, 256(%rsp)
	movups	%xmm2, 240(%rsp)
	movups	%xmm1, 224(%rsp)
	movups	%xmm0, 208(%rsp)
	movq	%r14, 200(%rsp)
.Ltmp141:
	leaq	200(%rsp), %rdi
	movabsq	$8519994227001858441, %r14
	movabsq	$-7923924532561682234, %rbx
	movq	%r14, %rsi
	movq	%rbx, %rdx
	callq	*_ZN12clap_builder6parser7matches11matched_arg10MatchedArg13infer_type_id17h4b3c91294236f9efE@GOTPCREL(%rip)
.Ltmp142:
	movq	%rax, %rsi
	xorq	%r14, %rsi
	movq	%rdx, %rcx
	xorq	%rbx, %rcx
	orq	%rsi, %rcx
	jne	.LBB11_15
	movq	200(%rsp), %rsi
	movq	208(%rsp), %rax
	movq	216(%rsp), %r8
	movq	224(%rsp), %r9
	movq	232(%rsp), %rdx
	movq	240(%rsp), %rcx
	movups	248(%rsp), %xmm0
	movaps	%xmm0, 416(%rsp)
	movups	264(%rsp), %xmm0
	movaps	%xmm0, 432(%rsp)
	movups	280(%rsp), %xmm0
	movaps	%xmm0, 448(%rsp)
	movq	296(%rsp), %rdi
	movq	%rdi, 464(%rsp)
	cmpq	$2, %rsi
	je	.LBB11_8
	cmpq	$3, %rsi
	jne	.LBB11_31
	movq	%r9, 144(%rsp)
	movq	%r8, 152(%rsp)
	movq	%rdx, %rbx
	movq	%rcx, %r13
	jmp	.LBB11_30
.LBB11_15:
	movq	%r13, 176(%rsp)
	movq	%rdx, 144(%rsp)
	movq	%rax, 152(%rsp)
	movq	296(%rsp), %rax
	movq	%rax, 96(%rsp)
	movups	280(%rsp), %xmm0
	movaps	%xmm0, 80(%rsp)
	movups	264(%rsp), %xmm0
	movaps	%xmm0, 64(%rsp)
	movups	200(%rsp), %xmm0
	movups	216(%rsp), %xmm1
	movups	232(%rsp), %xmm2
	movups	248(%rsp), %xmm3
	movaps	%xmm3, 48(%rsp)
	movaps	%xmm2, 32(%rsp)
	movaps	%xmm1, 16(%rsp)
	movaps	%xmm0, (%rsp)
	movq	192(%rsp), %rax
	movq	%rax, 160(%rsp)
	movq	184(%rsp), %rax
	movq	%rax, 168(%rsp)
	addq	$-8, %r15
	addq	$-16, 112(%rsp)
	movq	$-1, %r14
	xorl	%ebx, %ebx
	leaq	160(%rsp), %r13
	movq	_ZN12clap_builder7builder3str91_$LT$impl$u20$core..cmp..PartialEq$u20$for$u20$clap_builder..builder..str..inner..Inner$GT$2eq17h83b78434e87f74e5E@GOTPCREL(%rip), %r12
	movq	%rbp, %rax
	.p2align	4
.LBB11_16:
	cmpq	%rbx, 112(%rsp)
	je	.LBB11_23
.Ltmp147:
	leaq	(%rax,%rbx), %rdi
	movq	%r13, %rsi
	callq	*%r12
.Ltmp148:
	addq	$104, %r15
	incq	%r14
	addq	$16, %rbx
	testb	%al, %al
	movq	%rbp, %rax
	je	.LBB11_16
	movq	176(%rsp), %rsi
	cmpq	%rsi, %r14
	jae	.LBB11_70
	movaps	(%rsp), %xmm0
	movups	-96(%r15), %xmm1
	movups	%xmm0, -96(%r15)
	movaps	%xmm1, (%rsp)
	movaps	16(%rsp), %xmm0
	movups	-80(%r15), %xmm1
	movups	%xmm0, -80(%r15)
	movaps	%xmm1, 16(%rsp)
	movaps	32(%rsp), %xmm0
	movups	-64(%r15), %xmm1
	movups	%xmm0, -64(%r15)
	movaps	%xmm1, 32(%rsp)
	movaps	48(%rsp), %xmm0
	movups	-48(%r15), %xmm1
	movups	%xmm0, -48(%r15)
	movaps	%xmm1, 48(%rsp)
	movaps	64(%rsp), %xmm0
	movups	-32(%r15), %xmm1
	movups	%xmm0, -32(%r15)
	movaps	%xmm1, 64(%rsp)
	movaps	80(%rsp), %xmm0
	movups	-16(%r15), %xmm1
	movups	%xmm0, -16(%r15)
	movaps	%xmm1, 80(%rsp)
	movq	(%r15), %rax
	movq	96(%rsp), %rcx
	movq	%rcx, (%r15)
	movaps	(%rsp), %xmm0
	movaps	16(%rsp), %xmm1
	movaps	32(%rsp), %xmm2
	movaps	48(%rsp), %xmm3
	movaps	%xmm0, 304(%rsp)
	movq	%rax, 400(%rsp)
	movaps	%xmm1, 320(%rsp)
	movaps	%xmm2, 336(%rsp)
	movaps	%xmm3, 352(%rsp)
	movaps	64(%rsp), %xmm0
	movaps	%xmm0, 368(%rsp)
	movaps	80(%rsp), %xmm0
	movaps	%xmm0, 384(%rsp)
	cmpq	$2, 304(%rsp)
	movabsq	$-7923924532561682234, %r13
	movabsq	$8519994227001858441, %rbx
	je	.LBB11_29
	leaq	304(%rsp), %rdi
	callq	_ZN4core3ptr75drop_in_place$LT$clap_builder..parser..matches..matched_arg..MatchedArg$GT$17h9a86e3c78f1241d3E
	jmp	.LBB11_29
.LBB11_23:
	movq	160(%rsp), %rbx
	movq	168(%rsp), %r14
	movq	120(%rsp), %r15
	movq	104(%rsp), %rcx
	cmpq	(%r15), %rcx
	jne	.LBB11_26
.Ltmp156:
	leaq	.Lanon.94be9b806268416248345155c2a8fe89.13(%rip), %rsi
	movq	%r15, %rdi
	callq	*_ZN5alloc7raw_vec19RawVec$LT$T$C$A$GT$8grow_one17h65f71620dd8d2eb2E@GOTPCREL(%rip)
.Ltmp157:
	movq	8(%r15), %rax
.LBB11_26:
	movq	104(%rsp), %rcx
	shlq	$4, %rcx
	movq	%rbx, (%rax,%rcx)
	movq	%r14, 8(%rax,%rcx)
	movq	128(%rsp), %rax
	movq	%rax, 16(%r15)
	movq	40(%r15), %rbx
	cmpq	24(%r15), %rbx
	jne	.LBB11_28
.Ltmp162:
	leaq	24(%r15), %rdi
	leaq	.Lanon.94be9b806268416248345155c2a8fe89.14(%rip), %rsi
	callq	*_ZN5alloc7raw_vec19RawVec$LT$T$C$A$GT$8grow_one17h52ce9d88eee1183cE@GOTPCREL(%rip)
.Ltmp163:
.LBB11_28:
	movq	32(%r15), %rax
	imulq	$104, %rbx, %rcx
	movq	96(%rsp), %rdx
	movq	%rdx, 96(%rax,%rcx)
	movaps	80(%rsp), %xmm0
	movups	%xmm0, 80(%rax,%rcx)
	movaps	64(%rsp), %xmm0
	movups	%xmm0, 64(%rax,%rcx)
	movaps	(%rsp), %xmm0
	movaps	16(%rsp), %xmm1
	movaps	32(%rsp), %xmm2
	movaps	48(%rsp), %xmm3
	movups	%xmm3, 48(%rax,%rcx)
	movups	%xmm2, 32(%rax,%rcx)
	movups	%xmm1, 16(%rax,%rcx)
	movups	%xmm0, (%rax,%rcx)
	incq	%rbx
	movq	%rbx, 40(%r15)
	movabsq	$-7923924532561682234, %r13
	movabsq	$8519994227001858441, %rbx
.LBB11_29:
	xorl	%eax, %eax
.LBB11_30:
	movq	136(%rsp), %rcx
	movq	%rax, (%rcx)
	movq	152(%rsp), %rax
	movq	%rax, 8(%rcx)
	movq	144(%rsp), %rax
	movq	%rax, 16(%rcx)
	movq	%rbx, 24(%rcx)
	movq	%r13, 32(%rcx)
	jmp	.LBB11_9
.LBB11_31:
	movq	%rsi, 480(%rsp)
	movq	%rax, 488(%rsp)
	movq	%r8, 496(%rsp)
	movq	%r9, 504(%rsp)
	movq	%rdx, 512(%rsp)
	movq	%rcx, 520(%rsp)
	movaps	416(%rsp), %xmm0
	movaps	432(%rsp), %xmm1
	movaps	448(%rsp), %xmm2
	movups	%xmm0, 528(%rsp)
	movups	%xmm1, 544(%rsp)
	movups	%xmm2, 560(%rsp)
	movq	464(%rsp), %rax
	movq	%rax, 576(%rsp)
	movq	%rsp, %rdi
	leaq	480(%rsp), %rsi
	callq	*_ZN12clap_builder6parser7matches11matched_arg10MatchedArg17into_vals_flatten17h7f55197b4726d991E@GOTPCREL(%rip)
	movq	32(%rsp), %rcx
	cmpq	$0, (%rsp)
	movq	56(%rsp), %rax
	movq	40(%rsp), %r12
	je	.LBB11_46
	movq	24(%rsp), %rbx
	movq	8(%rsp), %r13
	testq	%rcx, %rcx
	je	.LBB11_37
	cmpq	%rax, %r12
	je	.LBB11_35
	leaq	32(%r12), %rax
	movq	%rax, 40(%rsp)
	movq	(%r12), %r15
	testq	%r15, %r15
	jne	.LBB11_54
.LBB11_35:
.Ltmp168:
	leaq	32(%rsp), %rdi
	callq	_ZN4core3ptr127drop_in_place$LT$core..option..Option$LT$alloc..vec..into_iter..IntoIter$LT$clap_builder..util..any_value..AnyValue$GT$$GT$$GT$17hce4266d3a9b81bc2E
.Ltmp169:
	movq	$0, 32(%rsp)
.LBB11_37:
	cmpq	%rbx, %r13
	je	.LBB11_51
	leaq	24(%r13), %r14
	movq	%r14, 8(%rsp)
	movq	(%r13), %r15
	movq	%r15, %rax
	negq	%rax
	jo	.LBB11_51
	movq	8(%r13), %r12
	movq	16(%r13), %r13
	shlq	$5, %r13
	addq	%r12, %r13
.Ltmp171:
	leaq	32(%rsp), %rdi
	callq	_ZN4core3ptr127drop_in_place$LT$core..option..Option$LT$alloc..vec..into_iter..IntoIter$LT$clap_builder..util..any_value..AnyValue$GT$$GT$$GT$17hce4266d3a9b81bc2E
.Ltmp172:
.LBB11_40:
	movq	%r12, 32(%rsp)
	movq	%r12, 40(%rsp)
	movq	%r15, 48(%rsp)
	movq	%r13, 56(%rsp)
	cmpq	%r13, %r12
	je	.LBB11_42
	leaq	32(%r12), %rax
	movq	%rax, 40(%rsp)
	movq	(%r12), %r15
	testq	%r15, %r15
	jne	.LBB11_54
.LBB11_42:
.Ltmp174:
	leaq	32(%rsp), %rdi
	callq	_ZN4core3ptr127drop_in_place$LT$core..option..Option$LT$alloc..vec..into_iter..IntoIter$LT$clap_builder..util..any_value..AnyValue$GT$$GT$$GT$17hce4266d3a9b81bc2E
.Ltmp175:
	movq	$0, 32(%rsp)
	cmpq	%rbx, %r14
	je	.LBB11_51
	leaq	24(%r14), %rbp
	movq	%rbp, 8(%rsp)
	movq	(%r14), %r15
	movabsq	$-9223372036854775808, %rax
	cmpq	%rax, %r15
	je	.LBB11_51
	movq	-16(%rbp), %r12
	movq	-8(%rbp), %r13
	shlq	$5, %r13
	addq	%r12, %r13
.Ltmp177:
	leaq	32(%rsp), %rdi
	callq	_ZN4core3ptr127drop_in_place$LT$core..option..Option$LT$alloc..vec..into_iter..IntoIter$LT$clap_builder..util..any_value..AnyValue$GT$$GT$$GT$17hce4266d3a9b81bc2E
.Ltmp178:
	movq	%rbp, %r14
	jmp	.LBB11_40
.LBB11_46:
	testq	%rcx, %rcx
	je	.LBB11_51
	cmpq	%rax, %r12
	je	.LBB11_49
	leaq	32(%r12), %rax
	movq	%rax, 40(%rsp)
	movq	(%r12), %r15
	testq	%r15, %r15
	jne	.LBB11_54
.LBB11_49:
.Ltmp180:
	leaq	32(%rsp), %rdi
	callq	_ZN4core3ptr127drop_in_place$LT$core..option..Option$LT$alloc..vec..into_iter..IntoIter$LT$clap_builder..util..any_value..AnyValue$GT$$GT$$GT$17hce4266d3a9b81bc2E
.Ltmp181:
	movq	$0, 32(%rsp)
.LBB11_51:
	cmpq	$0, 64(%rsp)
	je	.LBB11_63
	movq	72(%rsp), %r12
	cmpq	88(%rsp), %r12
	je	.LBB11_61
	leaq	32(%r12), %rax
	movq	%rax, 72(%rsp)
	movq	(%r12), %r15
	testq	%r15, %r15
	je	.LBB11_61
.LBB11_54:
	leaq	8(%r12), %rax
	leaq	16(%r12), %rcx
	addq	$24, %r12
	movq	(%r12), %rbx
	movq	(%rcx), %r14
	movq	(%rax), %r12
	movq	%r15, 304(%rsp)
	movq	%r12, 312(%rsp)
	movq	16(%r12), %rax
	decq	%rax
	andq	$-16, %rax
	leaq	(%r15,%rax), %rdi
	addq	$16, %rdi
.Ltmp183:
	callq	*24(%r12)
.Ltmp184:
	movabsq	$8519994227001858441, %rcx
	cmpq	%rcx, %rax
	jne	.LBB11_71
	movabsq	$-7923924532561682234, %rax
	cmpq	%rax, %rdx
	jne	.LBB11_71
	xorl	%ecx, %ecx
	movl	$1, %ebx
	movl	$1, %eax
	lock		cmpxchgq	%rcx, (%r15)
	jne	.LBB11_64
	#MEMBARRIER
	movq	16(%r15), %r14
	cmpq	$-1, %r15
	je	.LBB11_67
	lock		decq	8(%r15)
	jne	.LBB11_67
	#MEMBARRIER
	movl	$24, %esi
	movl	$8, %edx
	movq	%r15, %rdi
	callq	*_RNvCsb3o7Y5DtQ0O_7___rustc14___rust_dealloc@GOTPCREL(%rip)
	jmp	.LBB11_67
.LBB11_61:
.Ltmp195:
	leaq	64(%rsp), %rdi
	callq	_ZN4core3ptr127drop_in_place$LT$core..option..Option$LT$alloc..vec..into_iter..IntoIter$LT$clap_builder..util..any_value..AnyValue$GT$$GT$$GT$17hce4266d3a9b81bc2E
.Ltmp196:
	movq	$0, 64(%rsp)
.LBB11_63:
	xorl	%ebx, %ebx
	jmp	.LBB11_67
.LBB11_64:
	movq	%r15, 304(%rsp)
	movq	16(%r15), %r14
	lock		decq	(%r15)
	jne	.LBB11_66
	#MEMBARRIER
	leaq	304(%rsp), %rdi
	callq	_ZN5alloc4sync16Arc$LT$T$C$A$GT$9drop_slow17h8d74a0ca0615ad77E
.LBB11_66:
	movl	$1, %ebx
.LBB11_67:
	movq	136(%rsp), %rax
	movq	%rbx, 8(%rax)
	movq	%r14, 16(%rax)
	movq	$2, (%rax)
	movq	%rsp, %rdi
	callq	_ZN4core3ptr286drop_in_place$LT$core..iter..adapters..map..Map$LT$core..iter..adapters..flatten..Flatten$LT$alloc..vec..into_iter..IntoIter$LT$alloc..vec..Vec$LT$clap_builder..util..any_value..AnyValue$GT$$GT$$GT$$C$clap_builder..parser..matches..arg_matches..unwrap_downcast_into$LT$usize$GT$$GT$$GT$17h943cd4e846e506e5E
	jmp	.LBB11_9
.LBB11_68:
	leaq	.Lanon.94be9b806268416248345155c2a8fe89.11(%rip), %rdx
	movq	%r14, %rdi
	movq	%rbx, %rsi
	callq	*_ZN5alloc3vec16Vec$LT$T$C$A$GT$6remove13assert_failed17hefddc29f07de5424E@GOTPCREL(%rip)
.LBB11_69:
	leaq	.Lanon.94be9b806268416248345155c2a8fe89.12(%rip), %rdx
	movq	%r14, %rdi
	movq	%r13, %rsi
	callq	*_ZN5alloc3vec16Vec$LT$T$C$A$GT$6remove13assert_failed17hefddc29f07de5424E@GOTPCREL(%rip)
.LBB11_70:
.Ltmp150:
	leaq	.Lanon.94be9b806268416248345155c2a8fe89.16(%rip), %rdx
	movq	%r14, %rdi
	callq	*_ZN4core9panicking18panic_bounds_check17hd2a839eda26feb6eE@GOTPCREL(%rip)
.Ltmp151:
	jmp	.LBB11_72
.LBB11_71:
	movq	%r15, 304(%rsp)
	movq	%r12, 312(%rsp)
	movq	%r14, 320(%rsp)
	movq	%rbx, 328(%rsp)
.Ltmp189:
	leaq	.Lanon.94be9b806268416248345155c2a8fe89.26(%rip), %rdi
	leaq	.Lanon.94be9b806268416248345155c2a8fe89.71(%rip), %rcx
	leaq	.Lanon.94be9b806268416248345155c2a8fe89.28(%rip), %r8
	leaq	304(%rsp), %rdx
	movl	$99, %esi
	callq	*_ZN4core6result13unwrap_failed17hbff75c171ca545e8E@GOTPCREL(%rip)
.Ltmp190:
.LBB11_72:
	ud2
.LBB11_73:
.Ltmp182:
	jmp	.LBB11_91
.LBB11_74:
.Ltmp173:
	jmp	.LBB11_89
.LBB11_75:
.Ltmp170:
	jmp	.LBB11_91
.LBB11_76:
.Ltmp197:
	movq	%rax, %rbx
	movq	$0, 64(%rsp)
	jmp	.LBB11_92
.LBB11_77:
.Ltmp191:
	movq	%rax, %rbx
	movq	304(%rsp), %rax
	lock		decq	(%rax)
	jne	.LBB11_92
	#MEMBARRIER
.Ltmp192:
	leaq	304(%rsp), %rdi
	callq	*_ZN5alloc4sync16Arc$LT$T$C$A$GT$9drop_slow17had34b9b2d51cd27eE@GOTPCREL(%rip)
.Ltmp193:
	jmp	.LBB11_92
.LBB11_79:
.Ltmp194:
	callq	*_ZN4core9panicking16panic_in_cleanup17h6f48b941993644b5E@GOTPCREL(%rip)
.LBB11_80:
.Ltmp185:
	movq	%rax, %rbx
	lock		decq	(%r15)
	jne	.LBB11_92
	#MEMBARRIER
.Ltmp186:
	leaq	304(%rsp), %rdi
	callq	*_ZN5alloc4sync16Arc$LT$T$C$A$GT$9drop_slow17had34b9b2d51cd27eE@GOTPCREL(%rip)
.Ltmp187:
	jmp	.LBB11_92
.LBB11_82:
.Ltmp188:
	callq	*_ZN4core9panicking16panic_in_cleanup17h6f48b941993644b5E@GOTPCREL(%rip)
.LBB11_83:
.Ltmp164:
	movq	%rax, %rbx
.Ltmp165:
	movq	%rsp, %rdi
	callq	_ZN4core3ptr75drop_in_place$LT$clap_builder..parser..matches..matched_arg..MatchedArg$GT$17h9a86e3c78f1241d3E
.Ltmp166:
	jmp	.LBB11_98
.LBB11_84:
.Ltmp167:
	callq	*_ZN4core9panicking16panic_in_cleanup17h6f48b941993644b5E@GOTPCREL(%rip)
.LBB11_85:
.Ltmp158:
	movq	%rax, %rbx
.Ltmp159:
	movq	%rsp, %rdi
	callq	_ZN4core3ptr75drop_in_place$LT$clap_builder..parser..matches..matched_arg..MatchedArg$GT$17h9a86e3c78f1241d3E
.Ltmp160:
	jmp	.LBB11_98
.LBB11_86:
.Ltmp161:
	callq	*_ZN4core9panicking16panic_in_cleanup17h6f48b941993644b5E@GOTPCREL(%rip)
.LBB11_87:
.Ltmp152:
	jmp	.LBB11_97
.LBB11_88:
.Ltmp179:
.LBB11_89:
	movq	%rax, %rbx
	movq	%r12, 32(%rsp)
	movq	%r12, 40(%rsp)
	movq	%r15, 48(%rsp)
	movq	%r13, 56(%rsp)
	jmp	.LBB11_92
.LBB11_90:
.Ltmp176:
.LBB11_91:
	movq	%rax, %rbx
	movq	$0, 32(%rsp)
.LBB11_92:
.Ltmp198:
	movq	%rsp, %rdi
	callq	_ZN4core3ptr286drop_in_place$LT$core..iter..adapters..map..Map$LT$core..iter..adapters..flatten..Flatten$LT$alloc..vec..into_iter..IntoIter$LT$alloc..vec..Vec$LT$clap_builder..util..any_value..AnyValue$GT$$GT$$GT$$C$clap_builder..parser..matches..arg_matches..unwrap_downcast_into$LT$usize$GT$$GT$$GT$17h943cd4e846e506e5E
.Ltmp199:
	jmp	.LBB11_98
.LBB11_93:
.Ltmp200:
	callq	*_ZN4core9panicking16panic_in_cleanup17h6f48b941993644b5E@GOTPCREL(%rip)
.LBB11_94:
.Ltmp143:
	movq	%rax, %rbx
.Ltmp144:
	leaq	200(%rsp), %rdi
	callq	_ZN4core3ptr75drop_in_place$LT$clap_builder..parser..matches..matched_arg..MatchedArg$GT$17h9a86e3c78f1241d3E
.Ltmp145:
	jmp	.LBB11_98
.LBB11_95:
.Ltmp146:
	callq	*_ZN4core9panicking16panic_in_cleanup17h6f48b941993644b5E@GOTPCREL(%rip)
.LBB11_96:
.Ltmp149:
.LBB11_97:
	movq	%rax, %rbx
.Ltmp153:
	movq	%rsp, %rdi
	callq	_ZN4core3ptr75drop_in_place$LT$clap_builder..parser..matches..matched_arg..MatchedArg$GT$17h9a86e3c78f1241d3E
.Ltmp154:
.LBB11_98:
	movq	%rbx, %rdi
	callq	_Unwind_Resume@PLT
.LBB11_99:
.Ltmp155:
	callq	*_ZN4core9panicking16panic_in_cleanup17h6f48b941993644b5E@GOTPCREL(%rip)
.Lfunc_end11:
	.size	_ZN12clap_builder6parser7matches11arg_matches10ArgMatches14try_remove_one17he5ecbdccbe89b4e6E, .Lfunc_end11-_ZN12clap_builder6parser7matches11arg_matches10ArgMatches14try_remove_one17he5ecbdccbe89b4e6E
	.cfi_endproc
	.section	.gcc_except_table._ZN12clap_builder6parser7matches11arg_matches10ArgMatches14try_remove_one17he5ecbdccbe89b4e6E,"a",@progbits
	.p2align	2, 0x0
GCC_except_table11:
.Lexception8:
	.byte	255
	.byte	155
	.uleb128 .Lttbase7-.Lttbaseref7
.Lttbaseref7:
	.byte	1
	.uleb128 .Lcst_end8-.Lcst_begin8
.Lcst_begin8:
	.uleb128 .Lfunc_begin8-.Lfunc_begin8
	.uleb128 .Ltmp141-.Lfunc_begin8
	.byte	0
	.byte	0
	.uleb128 .Ltmp141-.Lfunc_begin8
	.uleb128 .Ltmp142-.Ltmp141
	.uleb128 .Ltmp143-.Lfunc_begin8
	.byte	0
	.uleb128 .Ltmp147-.Lfunc_begin8
	.uleb128 .Ltmp148-.Ltmp147
	.uleb128 .Ltmp149-.Lfunc_begin8
	.byte	0
	.uleb128 .Ltmp148-.Lfunc_begin8
	.uleb128 .Ltmp156-.Ltmp148
	.byte	0
	.byte	0
	.uleb128 .Ltmp156-.Lfunc_begin8
	.uleb128 .Ltmp157-.Ltmp156
	.uleb128 .Ltmp158-.Lfunc_begin8
	.byte	0
	.uleb128 .Ltmp162-.Lfunc_begin8
	.uleb128 .Ltmp163-.Ltmp162
	.uleb128 .Ltmp164-.Lfunc_begin8
	.byte	0
	.uleb128 .Ltmp163-.Lfunc_begin8
	.uleb128 .Ltmp168-.Ltmp163
	.byte	0
	.byte	0
	.uleb128 .Ltmp168-.Lfunc_begin8
	.uleb128 .Ltmp169-.Ltmp168
	.uleb128 .Ltmp170-.Lfunc_begin8
	.byte	0
	.uleb128 .Ltmp171-.Lfunc_begin8
	.uleb128 .Ltmp172-.Ltmp171
	.uleb128 .Ltmp173-.Lfunc_begin8
	.byte	0
	.uleb128 .Ltmp174-.Lfunc_begin8
	.uleb128 .Ltmp175-.Ltmp174
	.uleb128 .Ltmp176-.Lfunc_begin8
	.byte	0
	.uleb128 .Ltmp177-.Lfunc_begin8
	.uleb128 .Ltmp178-.Ltmp177
	.uleb128 .Ltmp179-.Lfunc_begin8
	.byte	0
	.uleb128 .Ltmp180-.Lfunc_begin8
	.uleb128 .Ltmp181-.Ltmp180
	.uleb128 .Ltmp182-.Lfunc_begin8
	.byte	0
	.uleb128 .Ltmp183-.Lfunc_begin8
	.uleb128 .Ltmp184-.Ltmp183
	.uleb128 .Ltmp185-.Lfunc_begin8
	.byte	0
	.uleb128 .Ltmp195-.Lfunc_begin8
	.uleb128 .Ltmp196-.Ltmp195
	.uleb128 .Ltmp197-.Lfunc_begin8
	.byte	0
	.uleb128 .Ltmp196-.Lfunc_begin8
	.uleb128 .Ltmp150-.Ltmp196
	.byte	0
	.byte	0
	.uleb128 .Ltmp150-.Lfunc_begin8
	.uleb128 .Ltmp151-.Ltmp150
	.uleb128 .Ltmp152-.Lfunc_begin8
	.byte	0
	.uleb128 .Ltmp189-.Lfunc_begin8
	.uleb128 .Ltmp190-.Ltmp189
	.uleb128 .Ltmp191-.Lfunc_begin8
	.byte	0
	.uleb128 .Ltmp192-.Lfunc_begin8
	.uleb128 .Ltmp193-.Ltmp192
	.uleb128 .Ltmp194-.Lfunc_begin8
	.byte	1
	.uleb128 .Ltmp186-.Lfunc_begin8
	.uleb128 .Ltmp187-.Ltmp186
	.uleb128 .Ltmp188-.Lfunc_begin8
	.byte	1
	.uleb128 .Ltmp165-.Lfunc_begin8
	.uleb128 .Ltmp166-.Ltmp165
	.uleb128 .Ltmp167-.Lfunc_begin8
	.byte	1
	.uleb128 .Ltmp159-.Lfunc_begin8
	.uleb128 .Ltmp160-.Ltmp159
	.uleb128 .Ltmp161-.Lfunc_begin8
	.byte	1
	.uleb128 .Ltmp198-.Lfunc_begin8
	.uleb128 .Ltmp199-.Ltmp198
	.uleb128 .Ltmp200-.Lfunc_begin8
	.byte	1
	.uleb128 .Ltmp144-.Lfunc_begin8
	.uleb128 .Ltmp145-.Ltmp144
	.uleb128 .Ltmp146-.Lfunc_begin8
	.byte	1
	.uleb128 .Ltmp153-.Lfunc_begin8
	.uleb128 .Ltmp154-.Ltmp153
	.uleb128 .Ltmp155-.Lfunc_begin8
	.byte	1
	.uleb128 .Ltmp154-.Lfunc_begin8
	.uleb128 .Lfunc_end11-.Ltmp154
	.byte	0
	.byte	0
.Lcst_end8:
	.byte	127
	.byte	0
	.p2align	2, 0x0
.Lttbase7:
	.byte	0
	.p2align	2, 0x0

	.section	.text._ZN12clap_builder7builder3arg3Arg12value_parser17h3c7e4598b50b7cedE,"ax",@progbits
	.p2align	4
	.type	_ZN12clap_builder7builder3arg3Arg12value_parser17h3c7e4598b50b7cedE,@function
_ZN12clap_builder7builder3arg3Arg12value_parser17h3c7e4598b50b7cedE:
.Lfunc_begin9:
	.cfi_startproc
	.cfi_personality 155, DW.ref.rust_eh_personality
	.cfi_lsda 27, .Lexception9
	pushq	%rbp
	.cfi_def_cfa_offset 16
	pushq	%r15
	.cfi_def_cfa_offset 24
	pushq	%r14
	.cfi_def_cfa_offset 32
	pushq	%r13
	.cfi_def_cfa_offset 40
	pushq	%r12
	.cfi_def_cfa_offset 48
	pushq	%rbx
	.cfi_def_cfa_offset 56
	subq	$24, %rsp
	.cfi_def_cfa_offset 80
	.cfi_offset %rbx, -56
	.cfi_offset %r12, -48
	.cfi_offset %r13, -40
	.cfi_offset %r14, -32
	.cfi_offset %r15, -24
	.cfi_offset %rbp, -16
	movq	%rdi, %rbx
	movq	(%rdx), %r15
	cmpq	$5, %r15
	je	.LBB12_2
	movups	8(%rdx), %xmm0
	movaps	%xmm0, (%rsp)
.LBB12_2:
	movq	80(%rsi), %rax
	cmpq	$5, %rax
	je	.LBB12_8
	cmpl	$4, %eax
	jb	.LBB12_8
	movq	88(%rsi), %r14
	movq	%rsi, %r12
	movq	96(%rsi), %r13
	movq	(%r13), %rax
	testq	%rax, %rax
	je	.LBB12_6
.Ltmp201:
	leaq	88(%r12), %rbp
	movq	%r14, %rdi
	callq	*%rax
.Ltmp202:
.LBB12_6:
	movq	8(%r13), %rax
	testq	%rax, %rax
	movq	%r12, %rsi
	je	.LBB12_8
	movq	16(%r13), %rdx
	movq	%r14, %rdi
	movq	%rax, %rsi
	callq	*_RNvCsb3o7Y5DtQ0O_7___rustc14___rust_dealloc@GOTPCREL(%rip)
	movq	%r12, %rsi
.LBB12_8:
	movq	%r15, 80(%rsi)
	movaps	(%rsp), %xmm0
	movups	%xmm0, 88(%rsi)
	movl	$600, %edx
	movq	%rbx, %rdi
	addq	$24, %rsp
	.cfi_def_cfa_offset 56
	popq	%rbx
	.cfi_def_cfa_offset 48
	popq	%r12
	.cfi_def_cfa_offset 40
	popq	%r13
	.cfi_def_cfa_offset 32
	popq	%r14
	.cfi_def_cfa_offset 24
	popq	%r15
	.cfi_def_cfa_offset 16
	popq	%rbp
	.cfi_def_cfa_offset 8
	jmpq	*memcpy@GOTPCREL(%rip)
.LBB12_9:
	.cfi_def_cfa_offset 80
.Ltmp203:
	movq	%rax, %rbx
	movq	8(%r13), %rsi
	testq	%rsi, %rsi
	je	.LBB12_11
	movq	16(%r13), %rdx
	movq	%r14, %rdi
	callq	*_RNvCsb3o7Y5DtQ0O_7___rustc14___rust_dealloc@GOTPCREL(%rip)
.LBB12_11:
	movq	%r12, %rdi
	movq	%r15, 80(%r12)
	movaps	(%rsp), %xmm0
	movups	%xmm0, (%rbp)
.Ltmp204:
	callq	_ZN4core3ptr52drop_in_place$LT$clap_builder..builder..arg..Arg$GT$17h3801a9edf821007bE
.Ltmp205:
	movq	%rbx, %rdi
	callq	_Unwind_Resume@PLT
.LBB12_13:
.Ltmp206:
	callq	*_ZN4core9panicking16panic_in_cleanup17h6f48b941993644b5E@GOTPCREL(%rip)
.Lfunc_end12:
	.size	_ZN12clap_builder7builder3arg3Arg12value_parser17h3c7e4598b50b7cedE, .Lfunc_end12-_ZN12clap_builder7builder3arg3Arg12value_parser17h3c7e4598b50b7cedE
	.cfi_endproc
	.section	.gcc_except_table._ZN12clap_builder7builder3arg3Arg12value_parser17h3c7e4598b50b7cedE,"a",@progbits
	.p2align	2, 0x0
GCC_except_table12:
.Lexception9:
	.byte	255
	.byte	155
	.uleb128 .Lttbase8-.Lttbaseref8
.Lttbaseref8:
	.byte	1
	.uleb128 .Lcst_end9-.Lcst_begin9
.Lcst_begin9:
	.uleb128 .Ltmp201-.Lfunc_begin9
	.uleb128 .Ltmp202-.Ltmp201
	.uleb128 .Ltmp203-.Lfunc_begin9
	.byte	0
	.uleb128 .Ltmp202-.Lfunc_begin9
	.uleb128 .Ltmp204-.Ltmp202
	.byte	0
	.byte	0
	.uleb128 .Ltmp204-.Lfunc_begin9
	.uleb128 .Ltmp205-.Ltmp204
	.uleb128 .Ltmp206-.Lfunc_begin9
	.byte	1
	.uleb128 .Ltmp205-.Lfunc_begin9
	.uleb128 .Lfunc_end12-.Ltmp205
	.byte	0
	.byte	0
.Lcst_end9:
	.byte	127
	.byte	0
	.p2align	2, 0x0
.Lttbase8:
	.byte	0
	.p2align	2, 0x0

	.section	".text.unlikely._ZN15crossbeam_deque5deque15Worker$LT$T$GT$6resize17h9f1588e7836593f2E","ax",@progbits
	.p2align	4
	.type	_ZN15crossbeam_deque5deque15Worker$LT$T$GT$6resize17h9f1588e7836593f2E,@function
_ZN15crossbeam_deque5deque15Worker$LT$T$GT$6resize17h9f1588e7836593f2E:
.Lfunc_begin10:
	.cfi_startproc
	.cfi_personality 155, DW.ref.rust_eh_personality
	.cfi_lsda 27, .Lexception10
	pushq	%rbp
	.cfi_def_cfa_offset 16
	pushq	%r15
	.cfi_def_cfa_offset 24
	pushq	%r14
	.cfi_def_cfa_offset 32
	pushq	%r13
	.cfi_def_cfa_offset 40
	pushq	%r12
	.cfi_def_cfa_offset 48
	pushq	%rbx
	.cfi_def_cfa_offset 56
	subq	$56, %rsp
	.cfi_def_cfa_offset 112
	.cfi_offset %rbx, -56
	.cfi_offset %r12, -48
	.cfi_offset %r13, -40
	.cfi_offset %r14, -32
	.cfi_offset %r15, -24
	.cfi_offset %rbp, -16
	movq	%rdi, 8(%rsp)
	movq	(%rdi), %rax
	movq	264(%rax), %rbp
	movq	256(%rax), %r13
	movq	%rsi, %r12
	shlq	$4, %r12
	xorl	%edi, %edi
	movq	%rsi, 16(%rsp)
	movq	%rsi, %rax
	shrq	$60, %rax
	jne	.LBB13_28
	movabsq	$9223372036854775800, %rax
	cmpq	%rax, %r12
	ja	.LBB13_28
	movq	8(%rsp), %rax
	movq	8(%rax), %rbx
	movq	16(%rax), %r14
	testq	%r12, %r12
	je	.LBB13_3
	callq	*_RNvCsb3o7Y5DtQ0O_7___rustc35___rust_no_alloc_shim_is_unstable_v2@GOTPCREL(%rip)
	movl	$8, %esi
	movq	%r12, %rdi
	callq	*_RNvCsb3o7Y5DtQ0O_7___rustc12___rust_alloc@GOTPCREL(%rip)
	movl	$8, %edi
	movq	%rax, %r15
	testq	%rax, %rax
	je	.LBB13_28
	cmpq	%r13, %rbp
	movq	16(%rsp), %r12
	jne	.LBB13_6
	jmp	.LBB13_9
.LBB13_3:
	movl	$8, %r15d
	cmpq	%r13, %rbp
	movq	16(%rsp), %r12
	je	.LBB13_9
.LBB13_6:
	decq	%r14
	leaq	-1(%r12), %rax
	movl	%ebp, %edx
	subl	%r13d, %edx
	leaq	1(%r13), %rcx
	testb	$1, %dl
	je	.LBB13_8
	movq	%r13, %rdx
	andq	%r14, %rdx
	shlq	$4, %rdx
	andq	%rax, %r13
	shlq	$4, %r13
	movups	(%rbx,%rdx), %xmm0
	movups	%xmm0, (%r15,%r13)
	movq	%rcx, %r13
.LBB13_8:
	cmpq	%rcx, %rbp
	je	.LBB13_9
	.p2align	4
.LBB13_12:
	movq	%r13, %rcx
	andq	%r14, %rcx
	shlq	$4, %rcx
	movq	%r13, %rdx
	andq	%rax, %rdx
	shlq	$4, %rdx
	movups	(%rbx,%rcx), %xmm0
	movups	%xmm0, (%r15,%rdx)
	leaq	1(%r13), %rcx
	movq	%rcx, %rdx
	andq	%r14, %rdx
	shlq	$4, %rdx
	andq	%rax, %rcx
	shlq	$4, %rcx
	movups	(%rbx,%rdx), %xmm0
	movups	%xmm0, (%r15,%rcx)
	addq	$2, %r13
	cmpq	%rbp, %r13
	jne	.LBB13_12
.LBB13_9:
	callq	_ZN15crossbeam_epoch7default11with_handle17hca130c69a38ee85bE
	movq	%rax, (%rsp)
	movq	8(%rsp), %rax
	movq	%r15, 8(%rax)
	movq	%r12, 16(%rax)
	movq	(%rax), %rbx
	callq	*_RNvCsb3o7Y5DtQ0O_7___rustc35___rust_no_alloc_shim_is_unstable_v2@GOTPCREL(%rip)
	movl	$16, %edi
	movl	$8, %esi
	callq	*_RNvCsb3o7Y5DtQ0O_7___rustc12___rust_alloc@GOTPCREL(%rip)
	testq	%rax, %rax
	je	.LBB13_10
	movq	%r15, (%rax)
	movq	%r12, 8(%rax)
	xchgq	%rax, 128(%rbx)
	movq	(%rsp), %rdi
	testq	%rdi, %rdi
	je	.LBB13_14
	leaq	_ZN15crossbeam_epoch8deferred8Deferred3new4call17ha17644d51d0eda08E(%rip), %rcx
	movq	%rcx, 24(%rsp)
	movq	%rax, 32(%rsp)
.Ltmp207:
	leaq	24(%rsp), %rsi
	movq	%rsp, %rdx
	callq	*_ZN15crossbeam_epoch8internal5Local5defer17h9a2f3a1bdbb2d99fE@GOTPCREL(%rip)
.Ltmp208:
	cmpq	$64, %r12
	jae	.LBB13_19
	jmp	.LBB13_20
.LBB13_14:
	andq	$-8, %rax
	movq	8(%rax), %rsi
	testq	%rsi, %rsi
	je	.LBB13_16
	movq	(%rax), %rdi
	shlq	$4, %rsi
	movl	$8, %edx
	movq	%rax, %rbx
	callq	*_RNvCsb3o7Y5DtQ0O_7___rustc14___rust_dealloc@GOTPCREL(%rip)
	movq	%rbx, %rax
.LBB13_16:
	movl	$16, %esi
	movl	$8, %edx
	movq	%rax, %rdi
	callq	*_RNvCsb3o7Y5DtQ0O_7___rustc14___rust_dealloc@GOTPCREL(%rip)
	cmpq	$64, %r12
	jb	.LBB13_20
.LBB13_19:
.Ltmp209:
	movq	%rsp, %rdi
	callq	*_ZN15crossbeam_epoch5guard5Guard5flush17hdd15152ed5fbfae9E@GOTPCREL(%rip)
.Ltmp210:
.LBB13_20:
	movq	(%rsp), %rdi
	testq	%rdi, %rdi
	je	.LBB13_24
	movq	2072(%rdi), %rax
	leaq	-1(%rax), %rcx
	movq	%rcx, 2072(%rdi)
	cmpq	$1, %rax
	jne	.LBB13_24
	movq	$0, 2176(%rdi)
	cmpq	$0, 2080(%rdi)
	je	.LBB13_23
.LBB13_24:
	addq	$56, %rsp
	.cfi_def_cfa_offset 56
	popq	%rbx
	.cfi_def_cfa_offset 48
	popq	%r12
	.cfi_def_cfa_offset 40
	popq	%r13
	.cfi_def_cfa_offset 32
	popq	%r14
	.cfi_def_cfa_offset 24
	popq	%r15
	.cfi_def_cfa_offset 16
	popq	%rbp
	.cfi_def_cfa_offset 8
	retq
.LBB13_10:
	.cfi_def_cfa_offset 112
.Ltmp211:
	movl	$8, %edi
	movl	$16, %esi
	callq	*_ZN5alloc5alloc18handle_alloc_error17h9164725ce4591dacE@GOTPCREL(%rip)
.Ltmp212:
	ud2
.LBB13_23:
	callq	*_ZN15crossbeam_epoch8internal5Local8finalize17h57e1916f70983062E@GOTPCREL(%rip)
	jmp	.LBB13_24
.LBB13_28:
	leaq	.Lanon.94be9b806268416248345155c2a8fe89.68(%rip), %rdx
	movq	%r12, %rsi
	callq	*_ZN5alloc7raw_vec12handle_error17hc389833aee8d6f48E@GOTPCREL(%rip)
.LBB13_26:
.Ltmp213:
	movq	%rax, %rbx
	movq	(%rsp), %rdi
.Ltmp214:
	callq	_ZN4core3ptr50drop_in_place$LT$crossbeam_epoch..guard..Guard$GT$17h83faae441caadd59E
.Ltmp215:
	movq	%rbx, %rdi
	callq	_Unwind_Resume@PLT
.LBB13_25:
.Ltmp216:
	callq	*_ZN4core9panicking16panic_in_cleanup17h6f48b941993644b5E@GOTPCREL(%rip)
.Lfunc_end13:
	.size	_ZN15crossbeam_deque5deque15Worker$LT$T$GT$6resize17h9f1588e7836593f2E, .Lfunc_end13-_ZN15crossbeam_deque5deque15Worker$LT$T$GT$6resize17h9f1588e7836593f2E
	.cfi_endproc
	.section	".gcc_except_table._ZN15crossbeam_deque5deque15Worker$LT$T$GT$6resize17h9f1588e7836593f2E","a",@progbits
	.p2align	2, 0x0
GCC_except_table13:
.Lexception10:
	.byte	255
	.byte	155
	.uleb128 .Lttbase9-.Lttbaseref9
.Lttbaseref9:
	.byte	1
	.uleb128 .Lcst_end10-.Lcst_begin10
.Lcst_begin10:
	.uleb128 .Lfunc_begin10-.Lfunc_begin10
	.uleb128 .Ltmp207-.Lfunc_begin10
	.byte	0
	.byte	0
	.uleb128 .Ltmp207-.Lfunc_begin10
	.uleb128 .Ltmp212-.Ltmp207
	.uleb128 .Ltmp213-.Lfunc_begin10
	.byte	0
	.uleb128 .Ltmp212-.Lfunc_begin10
	.uleb128 .Ltmp214-.Ltmp212
	.byte	0
	.byte	0
	.uleb128 .Ltmp214-.Lfunc_begin10
	.uleb128 .Ltmp215-.Ltmp214
	.uleb128 .Ltmp216-.Lfunc_begin10
	.byte	1
	.uleb128 .Ltmp215-.Lfunc_begin10
	.uleb128 .Lfunc_end13-.Ltmp215
	.byte	0
	.byte	0
.Lcst_end10:
	.byte	127
	.byte	0
	.p2align	2, 0x0
.Lttbase9:
	.byte	0
	.p2align	2, 0x0

	.section	.text._ZN15crossbeam_epoch7default11with_handle17hca130c69a38ee85bE,"ax",@progbits
	.p2align	4
	.type	_ZN15crossbeam_epoch7default11with_handle17hca130c69a38ee85bE,@function
_ZN15crossbeam_epoch7default11with_handle17hca130c69a38ee85bE:
.Lfunc_begin11:
	.cfi_startproc
	.cfi_personality 155, DW.ref.rust_eh_personality
	.cfi_lsda 27, .Lexception11
	pushq	%r14
	.cfi_def_cfa_offset 16
	pushq	%rbx
	.cfi_def_cfa_offset 24
	pushq	%rax
	.cfi_def_cfa_offset 32
	.cfi_offset %rbx, -24
	.cfi_offset %r14, -16
	movq	_ZN15crossbeam_epoch7default6HANDLE29_$u7b$$u7b$constant$u7d$$u7d$28_$u7b$$u7b$closure$u7d$$u7d$3VAL17hae90390980346752E@GOTTPOFF(%rip), %rax
	cmpb	$1, %fs:8(%rax)
	jne	.LBB14_2
	addq	%fs:0, %rax
.LBB14_3:
	movq	(%rax), %rcx
	movq	%rcx, (%rsp)
	movq	2072(%rcx), %rax
	cmpq	$-1, %rax
	je	.LBB14_9
	leaq	1(%rax), %rdx
	movq	%rdx, 2072(%rcx)
	testq	%rax, %rax
	jne	.LBB14_7
	movq	8(%rcx), %rax
	movq	384(%rax), %rdx
	orq	$1, %rdx
	xorl	%eax, %eax
	lock		cmpxchgq	%rdx, 2176(%rcx)
	#MEMBARRIER
	movq	2088(%rcx), %rax
	leaq	1(%rax), %rdx
	movq	%rdx, 2088(%rcx)
	testb	$127, %al
	je	.LBB14_6
.LBB14_7:
	movq	(%rsp), %rax
.LBB14_18:
	addq	$8, %rsp
	.cfi_def_cfa_offset 24
	popq	%rbx
	.cfi_def_cfa_offset 16
	popq	%r14
	.cfi_def_cfa_offset 8
	retq
.LBB14_2:
	.cfi_def_cfa_offset 32
	movq	%fs:0, %rdi
	addq	_ZN15crossbeam_epoch7default6HANDLE29_$u7b$$u7b$constant$u7d$$u7d$28_$u7b$$u7b$closure$u7d$$u7d$3VAL17hae90390980346752E@GOTTPOFF(%rip), %rdi
	xorl	%esi, %esi
	callq	_ZN3std3sys12thread_local6native4lazy20Storage$LT$T$C$D$GT$16get_or_init_slow17h838e930766b37d98E
	testq	%rax, %rax
	jne	.LBB14_3
	callq	*_ZN15crossbeam_epoch7default9collector17h5909ee25c42bc166E@GOTPCREL(%rip)
	movq	%rax, %rdi
	callq	*_ZN15crossbeam_epoch9collector9Collector8register17h53950ef5ec61c8dcE@GOTPCREL(%rip)
	movq	%rax, %rbx
	movq	%rax, (%rsp)
	movq	2072(%rax), %rax
	cmpq	$-1, %rax
	je	.LBB14_19
	leaq	1(%rax), %rcx
	movq	%rcx, 2072(%rbx)
	testq	%rax, %rax
	jne	.LBB14_16
	movq	8(%rbx), %rax
	movq	384(%rax), %rcx
	orq	$1, %rcx
	xorl	%eax, %eax
	lock		cmpxchgq	%rcx, 2176(%rbx)
	#MEMBARRIER
	movq	2088(%rbx), %rax
	leaq	1(%rax), %rcx
	movq	%rcx, 2088(%rbx)
	testb	$127, %al
	je	.LBB14_15
.LBB14_16:
	movq	(%rsp), %rax
	movq	2080(%rbx), %rcx
	leaq	-1(%rcx), %rdx
	movq	%rdx, 2080(%rbx)
	xorq	$1, %rcx
	orq	2072(%rbx), %rcx
	jne	.LBB14_18
	movq	%rbx, %rdi
	movq	%rax, %rbx
	callq	*_ZN15crossbeam_epoch8internal5Local8finalize17h57e1916f70983062E@GOTPCREL(%rip)
	movq	%rbx, %rax
	addq	$8, %rsp
	.cfi_def_cfa_offset 24
	popq	%rbx
	.cfi_def_cfa_offset 16
	popq	%r14
	.cfi_def_cfa_offset 8
	retq
.LBB14_9:
	.cfi_def_cfa_offset 32
.Ltmp230:
	leaq	.Lanon.94be9b806268416248345155c2a8fe89.37(%rip), %rdi
	callq	*_ZN4core6option13unwrap_failed17h5189ee9f1cf5c131E@GOTPCREL(%rip)
.Ltmp231:
	jmp	.LBB14_10
.LBB14_6:
	movq	8(%rcx), %rdi
	subq	$-128, %rdi
.Ltmp228:
	movq	%rsp, %rsi
	callq	*_ZN15crossbeam_epoch8internal6Global7collect17h0181dc0739376e11E@GOTPCREL(%rip)
.Ltmp229:
	jmp	.LBB14_7
.LBB14_19:
.Ltmp219:
	leaq	.Lanon.94be9b806268416248345155c2a8fe89.37(%rip), %rdi
	callq	*_ZN4core6option13unwrap_failed17h5189ee9f1cf5c131E@GOTPCREL(%rip)
.Ltmp220:
.LBB14_10:
	ud2
.LBB14_15:
	movq	8(%rbx), %rdi
	subq	$-128, %rdi
.Ltmp217:
	movq	%rsp, %rsi
	callq	*_ZN15crossbeam_epoch8internal6Global7collect17h0181dc0739376e11E@GOTPCREL(%rip)
.Ltmp218:
	jmp	.LBB14_16
.LBB14_21:
.Ltmp221:
	movq	%rax, %r14
	movq	(%rsp), %rdi
.Ltmp222:
	callq	_ZN4core3ptr50drop_in_place$LT$crossbeam_epoch..guard..Guard$GT$17h83faae441caadd59E
.Ltmp223:
	movq	2080(%rbx), %rax
	leaq	-1(%rax), %rcx
	movq	%rcx, 2080(%rbx)
	xorq	$1, %rax
	orq	2072(%rbx), %rax
	jne	.LBB14_24
.Ltmp225:
	movq	%rbx, %rdi
	callq	*_ZN15crossbeam_epoch8internal5Local8finalize17h57e1916f70983062E@GOTPCREL(%rip)
.Ltmp226:
	jmp	.LBB14_24
.LBB14_25:
.Ltmp227:
	callq	*_ZN4core9panicking16panic_in_cleanup17h6f48b941993644b5E@GOTPCREL(%rip)
.LBB14_20:
.Ltmp224:
	callq	*_ZN4core9panicking16panic_in_cleanup17h6f48b941993644b5E@GOTPCREL(%rip)
.LBB14_8:
.Ltmp232:
	movq	%rax, %r14
	movq	(%rsp), %rdi
.Ltmp233:
	callq	_ZN4core3ptr50drop_in_place$LT$crossbeam_epoch..guard..Guard$GT$17h83faae441caadd59E
.Ltmp234:
.LBB14_24:
	movq	%r14, %rdi
	callq	_Unwind_Resume@PLT
.LBB14_11:
.Ltmp235:
	callq	*_ZN4core9panicking16panic_in_cleanup17h6f48b941993644b5E@GOTPCREL(%rip)
.Lfunc_end14:
	.size	_ZN15crossbeam_epoch7default11with_handle17hca130c69a38ee85bE, .Lfunc_end14-_ZN15crossbeam_epoch7default11with_handle17hca130c69a38ee85bE
	.cfi_endproc
	.section	.gcc_except_table._ZN15crossbeam_epoch7default11with_handle17hca130c69a38ee85bE,"a",@progbits
	.p2align	2, 0x0
GCC_except_table14:
.Lexception11:
	.byte	255
	.byte	155
	.uleb128 .Lttbase10-.Lttbaseref10
.Lttbaseref10:
	.byte	1
	.uleb128 .Lcst_end11-.Lcst_begin11
.Lcst_begin11:
	.uleb128 .Lfunc_begin11-.Lfunc_begin11
	.uleb128 .Ltmp230-.Lfunc_begin11
	.byte	0
	.byte	0
	.uleb128 .Ltmp230-.Lfunc_begin11
	.uleb128 .Ltmp229-.Ltmp230
	.uleb128 .Ltmp232-.Lfunc_begin11
	.byte	0
	.uleb128 .Ltmp219-.Lfunc_begin11
	.uleb128 .Ltmp218-.Ltmp219
	.uleb128 .Ltmp221-.Lfunc_begin11
	.byte	0
	.uleb128 .Ltmp222-.Lfunc_begin11
	.uleb128 .Ltmp223-.Ltmp222
	.uleb128 .Ltmp224-.Lfunc_begin11
	.byte	1
	.uleb128 .Ltmp225-.Lfunc_begin11
	.uleb128 .Ltmp226-.Ltmp225
	.uleb128 .Ltmp227-.Lfunc_begin11
	.byte	1
	.uleb128 .Ltmp233-.Lfunc_begin11
	.uleb128 .Ltmp234-.Ltmp233
	.uleb128 .Ltmp235-.Lfunc_begin11
	.byte	1
	.uleb128 .Ltmp234-.Lfunc_begin11
	.uleb128 .Lfunc_end14-.Ltmp234
	.byte	0
	.byte	0
.Lcst_end11:
	.byte	127
	.byte	0
	.p2align	2, 0x0
.Lttbase10:
	.byte	0
	.p2align	2, 0x0

	.section	.text._ZN15crossbeam_epoch8deferred8Deferred3new4call17ha17644d51d0eda08E,"ax",@progbits
	.p2align	4
	.type	_ZN15crossbeam_epoch8deferred8Deferred3new4call17ha17644d51d0eda08E,@function
_ZN15crossbeam_epoch8deferred8Deferred3new4call17ha17644d51d0eda08E:
	.cfi_startproc
	pushq	%rbx
	.cfi_def_cfa_offset 16
	.cfi_offset %rbx, -16
	movq	(%rdi), %rbx
	andq	$-8, %rbx
	movq	8(%rbx), %rsi
	testq	%rsi, %rsi
	je	.LBB15_2
	movq	(%rbx), %rdi
	shlq	$4, %rsi
	movl	$8, %edx
	callq	*_RNvCsb3o7Y5DtQ0O_7___rustc14___rust_dealloc@GOTPCREL(%rip)
.LBB15_2:
	movl	$16, %esi
	movl	$8, %edx
	movq	%rbx, %rdi
	popq	%rbx
	.cfi_def_cfa_offset 8
	jmpq	*_RNvCsb3o7Y5DtQ0O_7___rustc14___rust_dealloc@GOTPCREL(%rip)
.Lfunc_end15:
	.size	_ZN15crossbeam_epoch8deferred8Deferred3new4call17ha17644d51d0eda08E, .Lfunc_end15-_ZN15crossbeam_epoch8deferred8Deferred3new4call17ha17644d51d0eda08E
	.cfi_endproc

	.section	".text._ZN36_$LT$T$u20$as$u20$core..any..Any$GT$7type_id17hf885e1e9bc68268aE","ax",@progbits
	.p2align	4
	.type	_ZN36_$LT$T$u20$as$u20$core..any..Any$GT$7type_id17hf885e1e9bc68268aE,@function
_ZN36_$LT$T$u20$as$u20$core..any..Any$GT$7type_id17hf885e1e9bc68268aE:
	.cfi_startproc
	movabsq	$8519994227001858441, %rax
	movabsq	$-7923924532561682234, %rdx
	retq
.Lfunc_end16:
	.size	_ZN36_$LT$T$u20$as$u20$core..any..Any$GT$7type_id17hf885e1e9bc68268aE, .Lfunc_end16-_ZN36_$LT$T$u20$as$u20$core..any..Any$GT$7type_id17hf885e1e9bc68268aE
	.cfi_endproc

	.section	.text._ZN3std2io5Write9write_all17h2007df0875e4e80eE,"ax",@progbits
	.p2align	4
	.type	_ZN3std2io5Write9write_all17h2007df0875e4e80eE,@function
_ZN3std2io5Write9write_all17h2007df0875e4e80eE:
.Lfunc_begin12:
	.cfi_startproc
	.cfi_personality 155, DW.ref.rust_eh_personality
	.cfi_lsda 27, .Lexception12
	pushq	%rbp
	.cfi_def_cfa_offset 16
	pushq	%r15
	.cfi_def_cfa_offset 24
	pushq	%r14
	.cfi_def_cfa_offset 32
	pushq	%r13
	.cfi_def_cfa_offset 40
	pushq	%r12
	.cfi_def_cfa_offset 48
	pushq	%rbx
	.cfi_def_cfa_offset 56
	subq	$24, %rsp
	.cfi_def_cfa_offset 80
	.cfi_offset %rbx, -56
	.cfi_offset %r12, -48
	.cfi_offset %r13, -40
	.cfi_offset %r14, -32
	.cfi_offset %r15, -24
	.cfi_offset %rbp, -16
	movq	%rdi, (%rsp)
	testq	%rdx, %rdx
	je	.LBB17_1
	movq	%rdx, %r14
	movq	%rsi, %r15
	movabsq	$-4294967296, %rbx
	movq	_ZN64_$LT$std..sys..stdio..unix..Stderr$u20$as$u20$std..io..Write$GT$5write17h15880f9624c3b2e3E@GOTPCREL(%rip), %rbp
	movq	_RNvCsb3o7Y5DtQ0O_7___rustc14___rust_dealloc@GOTPCREL(%rip), %r12
	jmp	.LBB17_4
.LBB17_17:
	cmpb	$35, 16(%rdx)
	jne	.LBB17_2
	.p2align	4
.LBB17_16:
	testq	%r14, %r14
	je	.LBB17_1
.LBB17_4:
	movq	(%rsp), %rdi
	movq	%r15, %rsi
	movq	%r14, %rdx
	callq	*%rbp
	movq	%rax, %r13
	movq	%rax, 8(%rsp)
	movq	%rdx, 16(%rsp)
	testb	$1, %r13b
	je	.LBB17_8
	movl	%edx, %eax
	andl	$3, %eax
	leaq	.LJTI17_0(%rip), %rcx
	movslq	(%rcx,%rax,4), %rax
	addq	%rcx, %rax
	jmpq	*%rax
.LBB17_18:
	cmpb	$35, 15(%rdx)
	jne	.LBB17_2
	movq	%rdx, %r13
	decq	%r13
	movq	-1(%rdx), %rbp
	movq	7(%rdx), %rbx
	movq	(%rbx), %rax
	testq	%rax, %rax
	je	.LBB17_21
.Ltmp242:
	movq	%rbp, %rdi
	callq	*%rax
.Ltmp243:
.LBB17_21:
	movq	8(%rbx), %rsi
	testq	%rsi, %rsi
	je	.LBB17_23
	movq	16(%rbx), %rdx
	movq	%rbp, %rdi
	callq	*%r12
.LBB17_23:
	movl	$24, %esi
	movl	$8, %edx
	movq	%r13, %rdi
	callq	*%r12
	movabsq	$-4294967296, %rbx
	movq	_ZN64_$LT$std..sys..stdio..unix..Stderr$u20$as$u20$std..io..Write$GT$5write17h15880f9624c3b2e3E@GOTPCREL(%rip), %rbp
	jmp	.LBB17_16
	.p2align	4
.LBB17_8:
	testq	%rdx, %rdx
	je	.LBB17_9
	movq	%r14, %rax
	subq	%rdx, %rax
	jb	.LBB17_11
	addq	%rdx, %r15
	movq	%rax, %r14
	jmp	.LBB17_16
.LBB17_29:
	movq	%rdx, %rax
	andq	%rbx, %rax
	movabsq	$17179869184, %rcx
	cmpq	%rcx, %rax
	je	.LBB17_16
	jmp	.LBB17_2
.LBB17_6:
	movq	%rdx, %rax
	andq	%rbx, %rax
	movabsq	$150323855360, %rcx
	cmpq	%rcx, %rax
	je	.LBB17_16
	jmp	.LBB17_2
.LBB17_1:
	xorl	%edx, %edx
.LBB17_2:
	movq	%rdx, %rax
	addq	$24, %rsp
	.cfi_def_cfa_offset 56
	popq	%rbx
	.cfi_def_cfa_offset 48
	popq	%r12
	.cfi_def_cfa_offset 40
	popq	%r13
	.cfi_def_cfa_offset 32
	popq	%r14
	.cfi_def_cfa_offset 24
	popq	%r15
	.cfi_def_cfa_offset 16
	popq	%rbp
	.cfi_def_cfa_offset 8
	retq
.LBB17_9:
	.cfi_def_cfa_offset 80
	leaq	.Lanon.94be9b806268416248345155c2a8fe89.44(%rip), %rdx
	jmp	.LBB17_2
.LBB17_11:
.Ltmp236:
	leaq	.Lanon.94be9b806268416248345155c2a8fe89.45(%rip), %rax
	movq	%rdx, %rdi
	movq	%r14, %rsi
	movq	%rax, %rdx
	callq	*_ZN4core5slice5index26slice_start_index_len_fail17h594af82af2ba138fE@GOTPCREL(%rip)
.Ltmp237:
	ud2
.LBB17_24:
.Ltmp244:
	movq	%rax, %r14
	movq	8(%rbx), %rsi
	testq	%rsi, %rsi
	je	.LBB17_26
	movq	16(%rbx), %rdx
	movq	%rbp, %rdi
	callq	*_RNvCsb3o7Y5DtQ0O_7___rustc14___rust_dealloc@GOTPCREL(%rip)
.LBB17_26:
	movl	$24, %esi
	movl	$8, %edx
	movq	%r13, %rdi
	callq	*_RNvCsb3o7Y5DtQ0O_7___rustc14___rust_dealloc@GOTPCREL(%rip)
	movq	%r14, %rdi
	callq	_Unwind_Resume@PLT
.LBB17_13:
.Ltmp238:
	movq	%rax, %r14
	testq	%r13, %r13
	je	.LBB17_27
.Ltmp239:
	leaq	16(%rsp), %rdi
	callq	_ZN4core3ptr42drop_in_place$LT$std..io..error..Error$GT$17hb5a2048f539dab14E
.Ltmp240:
.LBB17_27:
	movq	%r14, %rdi
	callq	_Unwind_Resume@PLT
.LBB17_28:
.Ltmp241:
	callq	*_ZN4core9panicking16panic_in_cleanup17h6f48b941993644b5E@GOTPCREL(%rip)
.Lfunc_end17:
	.size	_ZN3std2io5Write9write_all17h2007df0875e4e80eE, .Lfunc_end17-_ZN3std2io5Write9write_all17h2007df0875e4e80eE
	.cfi_endproc
	.section	.rodata._ZN3std2io5Write9write_all17h2007df0875e4e80eE,"a",@progbits
	.p2align	2, 0x0
.LJTI17_0:
	.long	.LBB17_17-.LJTI17_0
	.long	.LBB17_18-.LJTI17_0
	.long	.LBB17_29-.LJTI17_0
	.long	.LBB17_6-.LJTI17_0
	.section	.gcc_except_table._ZN3std2io5Write9write_all17h2007df0875e4e80eE,"a",@progbits
	.p2align	2, 0x0
GCC_except_table17:
.Lexception12:
	.byte	255
	.byte	155
	.uleb128 .Lttbase11-.Lttbaseref11
.Lttbaseref11:
	.byte	1
	.uleb128 .Lcst_end12-.Lcst_begin12
.Lcst_begin12:
	.uleb128 .Lfunc_begin12-.Lfunc_begin12
	.uleb128 .Ltmp242-.Lfunc_begin12
	.byte	0
	.byte	0
	.uleb128 .Ltmp242-.Lfunc_begin12
	.uleb128 .Ltmp243-.Ltmp242
	.uleb128 .Ltmp244-.Lfunc_begin12
	.byte	0
	.uleb128 .Ltmp243-.Lfunc_begin12
	.uleb128 .Ltmp236-.Ltmp243
	.byte	0
	.byte	0
	.uleb128 .Ltmp236-.Lfunc_begin12
	.uleb128 .Ltmp237-.Ltmp236
	.uleb128 .Ltmp238-.Lfunc_begin12
	.byte	0
	.uleb128 .Ltmp237-.Lfunc_begin12
	.uleb128 .Ltmp239-.Ltmp237
	.byte	0
	.byte	0
	.uleb128 .Ltmp239-.Lfunc_begin12
	.uleb128 .Ltmp240-.Ltmp239
	.uleb128 .Ltmp241-.Lfunc_begin12
	.byte	1
	.uleb128 .Ltmp240-.Lfunc_begin12
	.uleb128 .Lfunc_end17-.Ltmp240
	.byte	0
	.byte	0
.Lcst_end12:
	.byte	127
	.byte	0
	.p2align	2, 0x0
.Lttbase11:
	.byte	0
	.p2align	2, 0x0

	.section	.text._ZN3std2io5Write9write_fmt17h07c47c27ddc1f0fdE,"ax",@progbits
	.p2align	4
	.type	_ZN3std2io5Write9write_fmt17h07c47c27ddc1f0fdE,@function
_ZN3std2io5Write9write_fmt17h07c47c27ddc1f0fdE:
.Lfunc_begin13:
	.cfi_startproc
	.cfi_personality 155, DW.ref.rust_eh_personality
	.cfi_lsda 27, .Lexception13
	pushq	%r15
	.cfi_def_cfa_offset 16
	pushq	%r14
	.cfi_def_cfa_offset 24
	pushq	%r12
	.cfi_def_cfa_offset 32
	pushq	%rbx
	.cfi_def_cfa_offset 40
	subq	$72, %rsp
	.cfi_def_cfa_offset 112
	.cfi_offset %rbx, -40
	.cfi_offset %r12, -32
	.cfi_offset %r14, -24
	.cfi_offset %r15, -16
	movq	%rsi, %rdx
	movq	%rdi, 8(%rsp)
	leaq	16(%rsp), %rbx
	movq	$0, 16(%rsp)
.Ltmp245:
	leaq	.Lanon.94be9b806268416248345155c2a8fe89.38(%rip), %rsi
	leaq	8(%rsp), %rdi
	callq	*_ZN4core3fmt5write17h7d767db0d1b2d697E@GOTPCREL(%rip)
.Ltmp246:
	movl	%eax, %ecx
	movq	16(%rsp), %rax
	testb	%cl, %cl
	je	.LBB18_7
	testq	%rax, %rax
	jne	.LBB18_14
	leaq	.Lanon.94be9b806268416248345155c2a8fe89.40(%rip), %rax
	movq	%rax, 24(%rsp)
	movq	$1, 32(%rsp)
	movq	$8, 40(%rsp)
	xorps	%xmm0, %xmm0
	movups	%xmm0, 48(%rsp)
.Ltmp250:
	leaq	.Lanon.94be9b806268416248345155c2a8fe89.42(%rip), %rsi
	leaq	24(%rsp), %rdi
	callq	*_ZN4core9panicking9panic_fmt17hc89b0bc3fafe8271E@GOTPCREL(%rip)
.Ltmp251:
	ud2
.LBB18_7:
	movl	%eax, %ecx
	andl	$3, %ecx
	cmpl	$1, %ecx
	je	.LBB18_8
.LBB18_13:
	xorl	%eax, %eax
.LBB18_14:
	addq	$72, %rsp
	.cfi_def_cfa_offset 40
	popq	%rbx
	.cfi_def_cfa_offset 32
	popq	%r12
	.cfi_def_cfa_offset 24
	popq	%r14
	.cfi_def_cfa_offset 16
	popq	%r15
	.cfi_def_cfa_offset 8
	retq
.LBB18_8:
	.cfi_def_cfa_offset 112
	leaq	-1(%rax), %rbx
	movq	-1(%rax), %r15
	movq	7(%rax), %r12
	movq	(%r12), %rax
	testq	%rax, %rax
	je	.LBB18_10
.Ltmp247:
	movq	%r15, %rdi
	callq	*%rax
.Ltmp248:
.LBB18_10:
	movq	8(%r12), %rsi
	testq	%rsi, %rsi
	je	.LBB18_12
	movq	16(%r12), %rdx
	movq	%r15, %rdi
	callq	*_RNvCsb3o7Y5DtQ0O_7___rustc14___rust_dealloc@GOTPCREL(%rip)
.LBB18_12:
	movl	$24, %esi
	movl	$8, %edx
	movq	%rbx, %rdi
	callq	*_RNvCsb3o7Y5DtQ0O_7___rustc14___rust_dealloc@GOTPCREL(%rip)
	jmp	.LBB18_13
.LBB18_15:
.Ltmp249:
	movq	%rax, %r14
	movq	8(%r12), %rsi
	testq	%rsi, %rsi
	je	.LBB18_17
	movq	16(%r12), %rdx
	movq	%r15, %rdi
	callq	*_RNvCsb3o7Y5DtQ0O_7___rustc14___rust_dealloc@GOTPCREL(%rip)
.LBB18_17:
	movl	$24, %esi
	movl	$8, %edx
	movq	%rbx, %rdi
	callq	*_RNvCsb3o7Y5DtQ0O_7___rustc14___rust_dealloc@GOTPCREL(%rip)
	movq	%r14, %rdi
	callq	_Unwind_Resume@PLT
.LBB18_5:
.Ltmp252:
	movq	%rax, %r14
	cmpq	$0, 16(%rsp)
	je	.LBB18_18
.Ltmp253:
	movq	%rbx, %rdi
	callq	_ZN4core3ptr42drop_in_place$LT$std..io..error..Error$GT$17hb5a2048f539dab14E
.Ltmp254:
.LBB18_18:
	movq	%r14, %rdi
	callq	_Unwind_Resume@PLT
.LBB18_19:
.Ltmp255:
	callq	*_ZN4core9panicking16panic_in_cleanup17h6f48b941993644b5E@GOTPCREL(%rip)
.Lfunc_end18:
	.size	_ZN3std2io5Write9write_fmt17h07c47c27ddc1f0fdE, .Lfunc_end18-_ZN3std2io5Write9write_fmt17h07c47c27ddc1f0fdE
	.cfi_endproc
	.section	.gcc_except_table._ZN3std2io5Write9write_fmt17h07c47c27ddc1f0fdE,"a",@progbits
	.p2align	2, 0x0
GCC_except_table18:
.Lexception13:
	.byte	255
	.byte	155
	.uleb128 .Lttbase12-.Lttbaseref12
.Lttbaseref12:
	.byte	1
	.uleb128 .Lcst_end13-.Lcst_begin13
.Lcst_begin13:
	.uleb128 .Ltmp245-.Lfunc_begin13
	.uleb128 .Ltmp251-.Ltmp245
	.uleb128 .Ltmp252-.Lfunc_begin13
	.byte	0
	.uleb128 .Ltmp247-.Lfunc_begin13
	.uleb128 .Ltmp248-.Ltmp247
	.uleb128 .Ltmp249-.Lfunc_begin13
	.byte	0
	.uleb128 .Ltmp248-.Lfunc_begin13
	.uleb128 .Ltmp253-.Ltmp248
	.byte	0
	.byte	0
	.uleb128 .Ltmp253-.Lfunc_begin13
	.uleb128 .Ltmp254-.Ltmp253
	.uleb128 .Ltmp255-.Lfunc_begin13
	.byte	1
	.uleb128 .Ltmp254-.Lfunc_begin13
	.uleb128 .Lfunc_end18-.Ltmp254
	.byte	0
	.byte	0
.Lcst_end13:
	.byte	127
	.byte	0
	.p2align	2, 0x0
.Lttbase12:
	.byte	0
	.p2align	2, 0x0

	.section	.text._ZN3std2rt10lang_start17hc4cb4c8dd88f610aE,"ax",@progbits
	.hidden	_ZN3std2rt10lang_start17hc4cb4c8dd88f610aE
	.globl	_ZN3std2rt10lang_start17hc4cb4c8dd88f610aE
	.p2align	4
	.type	_ZN3std2rt10lang_start17hc4cb4c8dd88f610aE,@function
_ZN3std2rt10lang_start17hc4cb4c8dd88f610aE:
	.cfi_startproc
	pushq	%rax
	.cfi_def_cfa_offset 16
	movl	%ecx, %r8d
	movq	%rdx, %rcx
	movq	%rsi, %rdx
	movq	%rdi, (%rsp)
	leaq	.Lanon.94be9b806268416248345155c2a8fe89.46(%rip), %rsi
	movq	%rsp, %rdi
	callq	*_ZN3std2rt19lang_start_internal17ha457dc9d59ab0f9dE@GOTPCREL(%rip)
	popq	%rcx
	.cfi_def_cfa_offset 8
	retq
.Lfunc_end19:
	.size	_ZN3std2rt10lang_start17hc4cb4c8dd88f610aE, .Lfunc_end19-_ZN3std2rt10lang_start17hc4cb4c8dd88f610aE
	.cfi_endproc

	.section	".text._ZN3std2rt10lang_start28_$u7b$$u7b$closure$u7d$$u7d$17hd751e174e8001f1cE","ax",@progbits
	.p2align	4
	.type	_ZN3std2rt10lang_start28_$u7b$$u7b$closure$u7d$$u7d$17hd751e174e8001f1cE,@function
_ZN3std2rt10lang_start28_$u7b$$u7b$closure$u7d$$u7d$17hd751e174e8001f1cE:
.Lfunc_begin14:
	.cfi_startproc
	.cfi_personality 155, DW.ref.rust_eh_personality
	.cfi_lsda 27, .Lexception14
	pushq	%r15
	.cfi_def_cfa_offset 16
	pushq	%r14
	.cfi_def_cfa_offset 24
	pushq	%r12
	.cfi_def_cfa_offset 32
	pushq	%rbx
	.cfi_def_cfa_offset 40
	subq	$136, %rsp
	.cfi_def_cfa_offset 176
	.cfi_offset %rbx, -40
	.cfi_offset %r12, -32
	.cfi_offset %r14, -24
	.cfi_offset %r15, -16
	movq	(%rdi), %rsi
	leaq	56(%rsp), %rdi
	callq	_ZN3std3sys9backtrace28__rust_begin_short_backtrace17hb73d3602fb30b614E
	xorl	%eax, %eax
	cmpl	$3, 56(%rsp)
	je	.LBB20_19
	movups	56(%rsp), %xmm0
	movups	72(%rsp), %xmm1
	movaps	%xmm1, 16(%rsp)
	movaps	%xmm0, (%rsp)
	movq	%rsp, %rax
	movq	%rax, 40(%rsp)
	leaq	_ZN73_$LT$rust_strengths_demo..ProcessingError$u20$as$u20$core..fmt..Debug$GT$3fmt17hde2f475613b4df32E(%rip), %rax
	movq	%rax, 48(%rsp)
	leaq	.Lanon.94be9b806268416248345155c2a8fe89.110(%rip), %rax
	movq	%rax, 88(%rsp)
	movq	$2, 96(%rsp)
	movq	$0, 120(%rsp)
	leaq	40(%rsp), %rax
	movq	%rax, 104(%rsp)
	movq	$1, 112(%rsp)
.Ltmp256:
	leaq	88(%rsp), %rdi
	callq	*_ZN3std2io5stdio23attempt_print_to_stderr17hddf090dfccce3be2E@GOTPCREL(%rip)
.Ltmp257:
	movq	(%rsp), %rax
	testq	%rax, %rax
	je	.LBB20_15
	cmpl	$1, %eax
	jne	.LBB20_4
.LBB20_15:
	movq	8(%rsp), %rsi
	testq	%rsi, %rsi
	je	.LBB20_18
	movq	16(%rsp), %rdi
	movl	$1, %edx
.LBB20_17:
	callq	*_RNvCsb3o7Y5DtQ0O_7___rustc14___rust_dealloc@GOTPCREL(%rip)
	jmp	.LBB20_18
.LBB20_4:
	movq	8(%rsp), %rax
	movl	%eax, %ecx
	andl	$3, %ecx
	cmpl	$1, %ecx
	je	.LBB20_5
.LBB20_18:
	movl	$1, %eax
.LBB20_19:
	addq	$136, %rsp
	.cfi_def_cfa_offset 40
	popq	%rbx
	.cfi_def_cfa_offset 32
	popq	%r12
	.cfi_def_cfa_offset 24
	popq	%r14
	.cfi_def_cfa_offset 16
	popq	%r15
	.cfi_def_cfa_offset 8
	retq
.LBB20_5:
	.cfi_def_cfa_offset 176
	leaq	-1(%rax), %rbx
	movq	-1(%rax), %r15
	movq	7(%rax), %r12
	movq	(%r12), %rax
	testq	%rax, %rax
	je	.LBB20_7
.Ltmp262:
	movq	%r15, %rdi
	callq	*%rax
.Ltmp263:
.LBB20_7:
	movq	8(%r12), %rsi
	testq	%rsi, %rsi
	je	.LBB20_9
	movq	16(%r12), %rdx
	movq	%r15, %rdi
	callq	*_RNvCsb3o7Y5DtQ0O_7___rustc14___rust_dealloc@GOTPCREL(%rip)
.LBB20_9:
	movl	$24, %esi
	movl	$8, %edx
	movq	%rbx, %rdi
	jmp	.LBB20_17
.LBB20_11:
.Ltmp264:
	movq	%rax, %r14
	movq	8(%r12), %rsi
	testq	%rsi, %rsi
	je	.LBB20_13
	movq	16(%r12), %rdx
	movq	%r15, %rdi
	callq	*_RNvCsb3o7Y5DtQ0O_7___rustc14___rust_dealloc@GOTPCREL(%rip)
.LBB20_13:
	movl	$24, %esi
	movl	$8, %edx
	movq	%rbx, %rdi
	callq	*_RNvCsb3o7Y5DtQ0O_7___rustc14___rust_dealloc@GOTPCREL(%rip)
	movq	%r14, %rdi
	callq	_Unwind_Resume@PLT
.LBB20_10:
.Ltmp258:
	movq	%rax, %r14
.Ltmp259:
	movq	%rsp, %rdi
	callq	_ZN4core3ptr57drop_in_place$LT$rust_strengths_demo..ProcessingError$GT$17h7c3ce9bb6fceb975E
.Ltmp260:
	movq	%r14, %rdi
	callq	_Unwind_Resume@PLT
.LBB20_20:
.Ltmp261:
	callq	*_ZN4core9panicking16panic_in_cleanup17h6f48b941993644b5E@GOTPCREL(%rip)
.Lfunc_end20:
	.size	_ZN3std2rt10lang_start28_$u7b$$u7b$closure$u7d$$u7d$17hd751e174e8001f1cE, .Lfunc_end20-_ZN3std2rt10lang_start28_$u7b$$u7b$closure$u7d$$u7d$17hd751e174e8001f1cE
	.cfi_endproc
	.section	".gcc_except_table._ZN3std2rt10lang_start28_$u7b$$u7b$closure$u7d$$u7d$17hd751e174e8001f1cE","a",@progbits
	.p2align	2, 0x0
GCC_except_table20:
.Lexception14:
	.byte	255
	.byte	155
	.uleb128 .Lttbase13-.Lttbaseref13
.Lttbaseref13:
	.byte	1
	.uleb128 .Lcst_end14-.Lcst_begin14
.Lcst_begin14:
	.uleb128 .Lfunc_begin14-.Lfunc_begin14
	.uleb128 .Ltmp256-.Lfunc_begin14
	.byte	0
	.byte	0
	.uleb128 .Ltmp256-.Lfunc_begin14
	.uleb128 .Ltmp257-.Ltmp256
	.uleb128 .Ltmp258-.Lfunc_begin14
	.byte	0
	.uleb128 .Ltmp262-.Lfunc_begin14
	.uleb128 .Ltmp263-.Ltmp262
	.uleb128 .Ltmp264-.Lfunc_begin14
	.byte	0
	.uleb128 .Ltmp263-.Lfunc_begin14
	.uleb128 .Ltmp259-.Ltmp263
	.byte	0
	.byte	0
	.uleb128 .Ltmp259-.Lfunc_begin14
	.uleb128 .Ltmp260-.Ltmp259
	.uleb128 .Ltmp261-.Lfunc_begin14
	.byte	1
	.uleb128 .Ltmp260-.Lfunc_begin14
	.uleb128 .Lfunc_end20-.Ltmp260
	.byte	0
	.byte	0
.Lcst_end14:
	.byte	127
	.byte	0
	.p2align	2, 0x0
.Lttbase13:
	.byte	0
	.p2align	2, 0x0

	.section	".text.unlikely._ZN3std3sys12thread_local6native4lazy20Storage$LT$T$C$D$GT$16get_or_init_slow17h838e930766b37d98E","ax",@progbits
	.p2align	4
	.type	_ZN3std3sys12thread_local6native4lazy20Storage$LT$T$C$D$GT$16get_or_init_slow17h838e930766b37d98E,@function
_ZN3std3sys12thread_local6native4lazy20Storage$LT$T$C$D$GT$16get_or_init_slow17h838e930766b37d98E:
	.cfi_startproc
	pushq	%rbx
	.cfi_def_cfa_offset 16
	.cfi_offset %rbx, -16
	movq	%rdi, %rbx
	movzbl	8(%rdi), %eax
	testl	%eax, %eax
	je	.LBB21_5
	cmpl	$1, %eax
	je	.LBB21_11
	xorl	%ebx, %ebx
.LBB21_11:
	movq	%rbx, %rax
	popq	%rbx
	.cfi_def_cfa_offset 8
	retq
.LBB21_5:
	.cfi_def_cfa_offset 16
	testq	%rsi, %rsi
	je	.LBB21_6
	movl	(%rsi), %ecx
	movq	8(%rsi), %rax
	movq	$0, (%rsi)
	cmpl	$1, %ecx
	jne	.LBB21_6
	movq	%rax, (%rbx)
	movb	$1, 8(%rbx)
	jmp	.LBB21_8
.LBB21_6:
	callq	*_ZN15crossbeam_epoch7default9collector17h5909ee25c42bc166E@GOTPCREL(%rip)
	movq	%rax, %rdi
	callq	*_ZN15crossbeam_epoch9collector9Collector8register17h53950ef5ec61c8dcE@GOTPCREL(%rip)
	movzbl	8(%rbx), %ecx
	movq	(%rbx), %rdi
	movq	%rax, (%rbx)
	movb	$1, 8(%rbx)
	cmpl	$1, %ecx
	jne	.LBB21_7
	movq	2080(%rdi), %rax
	leaq	-1(%rax), %rcx
	movq	%rcx, 2080(%rdi)
	xorq	$1, %rax
	orq	2072(%rdi), %rax
	jne	.LBB21_11
	callq	*_ZN15crossbeam_epoch8internal5Local8finalize17h57e1916f70983062E@GOTPCREL(%rip)
	movq	%rbx, %rax
	popq	%rbx
	.cfi_def_cfa_offset 8
	retq
.LBB21_7:
	.cfi_def_cfa_offset 16
	testl	%ecx, %ecx
	jne	.LBB21_12
.LBB21_8:
	leaq	_ZN3std3sys12thread_local6native4lazy7destroy17h9372e547601089feE(%rip), %rsi
	movq	%rbx, %rdi
	callq	*_ZN3std3sys12thread_local11destructors10linux_like8register17h261ccd9fcf2dc477E@GOTPCREL(%rip)
	movq	%rbx, %rax
	popq	%rbx
	.cfi_def_cfa_offset 8
	retq
.LBB21_12:
	.cfi_def_cfa_offset 16
	leaq	.Lanon.94be9b806268416248345155c2a8fe89.2(%rip), %rdi
	leaq	.Lanon.94be9b806268416248345155c2a8fe89.48(%rip), %rdx
	movl	$40, %esi
	callq	*_ZN4core9panicking5panic17h13f78b0d410218f2E@GOTPCREL(%rip)
.Lfunc_end21:
	.size	_ZN3std3sys12thread_local6native4lazy20Storage$LT$T$C$D$GT$16get_or_init_slow17h838e930766b37d98E, .Lfunc_end21-_ZN3std3sys12thread_local6native4lazy20Storage$LT$T$C$D$GT$16get_or_init_slow17h838e930766b37d98E
	.cfi_endproc

	.section	.text._ZN3std3sys12thread_local6native4lazy7destroy17h9372e547601089feE,"ax",@progbits
	.p2align	4
	.type	_ZN3std3sys12thread_local6native4lazy7destroy17h9372e547601089feE,@function
_ZN3std3sys12thread_local6native4lazy7destroy17h9372e547601089feE:
.Lfunc_begin15:
	.cfi_startproc
	.cfi_personality 155, DW.ref.rust_eh_personality
	.cfi_lsda 27, .Lexception15
	pushq	%rax
	.cfi_def_cfa_offset 16
	movzbl	8(%rdi), %eax
	movb	$2, 8(%rdi)
	cmpb	$1, %al
	jne	.LBB22_3
	movq	(%rdi), %rdi
	movq	2080(%rdi), %rax
	leaq	-1(%rax), %rcx
	movq	%rcx, 2080(%rdi)
	xorq	$1, %rax
	orq	2072(%rdi), %rax
	je	.LBB22_2
.LBB22_3:
	popq	%rax
	.cfi_def_cfa_offset 8
	retq
.LBB22_2:
	.cfi_def_cfa_offset 16
.Ltmp265:
	callq	*_ZN15crossbeam_epoch8internal5Local8finalize17h57e1916f70983062E@GOTPCREL(%rip)
.Ltmp266:
	jmp	.LBB22_3
.LBB22_4:
.Ltmp267:
.Ltmp268:
	callq	_ZN103_$LT$std..sys..thread_local..abort_on_dtor_unwind..DtorUnwindGuard$u20$as$u20$core..ops..drop..Drop$GT$4drop17h3038f8b90ff8dbd3E
.Ltmp269:
	ud2
.LBB22_6:
.Ltmp270:
	callq	*_ZN4core9panicking16panic_in_cleanup17h6f48b941993644b5E@GOTPCREL(%rip)
.Lfunc_end22:
	.size	_ZN3std3sys12thread_local6native4lazy7destroy17h9372e547601089feE, .Lfunc_end22-_ZN3std3sys12thread_local6native4lazy7destroy17h9372e547601089feE
	.cfi_endproc
	.section	.gcc_except_table._ZN3std3sys12thread_local6native4lazy7destroy17h9372e547601089feE,"a",@progbits
	.p2align	2, 0x0
GCC_except_table22:
.Lexception15:
	.byte	255
	.byte	155
	.uleb128 .Lttbase14-.Lttbaseref14
.Lttbaseref14:
	.byte	1
	.uleb128 .Lcst_end15-.Lcst_begin15
.Lcst_begin15:
	.uleb128 .Ltmp265-.Lfunc_begin15
	.uleb128 .Ltmp266-.Ltmp265
	.uleb128 .Ltmp267-.Lfunc_begin15
	.byte	1
	.uleb128 .Ltmp268-.Lfunc_begin15
	.uleb128 .Ltmp269-.Ltmp268
	.uleb128 .Ltmp270-.Lfunc_begin15
	.byte	1
.Lcst_end15:
	.byte	127
	.byte	0
	.p2align	2, 0x0
.Lttbase14:
	.byte	0
	.p2align	2, 0x0

	.section	.text._ZN3std3sys9backtrace28__rust_begin_short_backtrace17h6468f14b3a9a33faE,"ax",@progbits
	.p2align	4
	.type	_ZN3std3sys9backtrace28__rust_begin_short_backtrace17h6468f14b3a9a33faE,@function
_ZN3std3sys9backtrace28__rust_begin_short_backtrace17h6468f14b3a9a33faE:
	.cfi_startproc
	pushq	%r14
	.cfi_def_cfa_offset 16
	pushq	%rbx
	.cfi_def_cfa_offset 24
	subq	$72, %rsp
	.cfi_def_cfa_offset 96
	.cfi_offset %rbx, -24
	.cfi_offset %r14, -16
	movq	%rsi, %r14
	movq	%rdi, %rbx
	imulq	$50, %rsi, %rcx
	addq	$100, %rcx
	movq	%rcx, %rax
	shrq	$3, %rax
	movabsq	$2361183241434822607, %rdx
	mulq	%rdx
	movq	%rdx, %rdi
	shrq	$4, %rdi
	imull	$1000, %edi, %eax
	subl	%eax, %ecx
	imull	$1000000, %ecx, %esi
	callq	*_ZN3std6thread5sleep17h9ffd7c3c05baee3fE@GOTPCREL(%rip)
	incq	%r14
	movq	%r14, (%rsp)
	movq	%rsp, %rax
	movq	%rax, 8(%rsp)
	movq	_ZN4core3fmt3num3imp52_$LT$impl$u20$core..fmt..Display$u20$for$u20$u64$GT$3fmt17h4dd2e94bada1ef56E@GOTPCREL(%rip), %rax
	movq	%rax, 16(%rsp)
	leaq	.Lanon.94be9b806268416248345155c2a8fe89.178(%rip), %rax
	movq	%rax, 24(%rsp)
	movq	$2, 32(%rsp)
	movq	$0, 56(%rsp)
	leaq	8(%rsp), %rax
	movq	%rax, 40(%rsp)
	movq	$1, 48(%rsp)
	leaq	24(%rsp), %rsi
	movq	%rbx, %rdi
	callq	*_ZN5alloc3fmt6format12format_inner17h22e479de3018d8e0E@GOTPCREL(%rip)
	#APP
	#NO_APP
	addq	$72, %rsp
	.cfi_def_cfa_offset 24
	popq	%rbx
	.cfi_def_cfa_offset 16
	popq	%r14
	.cfi_def_cfa_offset 8
	retq
.Lfunc_end23:
	.size	_ZN3std3sys9backtrace28__rust_begin_short_backtrace17h6468f14b3a9a33faE, .Lfunc_end23-_ZN3std3sys9backtrace28__rust_begin_short_backtrace17h6468f14b3a9a33faE
	.cfi_endproc

	.section	.text._ZN3std3sys9backtrace28__rust_begin_short_backtrace17ha1d0caad70c34cf0E,"ax",@progbits
	.p2align	4
	.type	_ZN3std3sys9backtrace28__rust_begin_short_backtrace17ha1d0caad70c34cf0E,@function
_ZN3std3sys9backtrace28__rust_begin_short_backtrace17ha1d0caad70c34cf0E:
	.cfi_startproc
	subq	$40, %rsp
	.cfi_def_cfa_offset 48
	movups	(%rdi), %xmm0
	movups	16(%rdi), %xmm1
	movaps	%xmm1, 16(%rsp)
	movaps	%xmm0, (%rsp)
	movq	%rsp, %rdi
	callq	*_ZN3std6thread9spawnhook15ChildSpawnHooks3run17hc26eed9f7e2ed61fE@GOTPCREL(%rip)
	#APP
	#NO_APP
	addq	$40, %rsp
	.cfi_def_cfa_offset 8
	retq
.Lfunc_end24:
	.size	_ZN3std3sys9backtrace28__rust_begin_short_backtrace17ha1d0caad70c34cf0E, .Lfunc_end24-_ZN3std3sys9backtrace28__rust_begin_short_backtrace17ha1d0caad70c34cf0E
	.cfi_endproc

	.section	.text._ZN3std3sys9backtrace28__rust_begin_short_backtrace17hb73d3602fb30b614E,"ax",@progbits
	.p2align	4
	.type	_ZN3std3sys9backtrace28__rust_begin_short_backtrace17hb73d3602fb30b614E,@function
_ZN3std3sys9backtrace28__rust_begin_short_backtrace17hb73d3602fb30b614E:
	.cfi_startproc
	pushq	%rax
	.cfi_def_cfa_offset 16
	callq	*%rsi
	#APP
	#NO_APP
	popq	%rax
	.cfi_def_cfa_offset 8
	retq
.Lfunc_end25:
	.size	_ZN3std3sys9backtrace28__rust_begin_short_backtrace17hb73d3602fb30b614E, .Lfunc_end25-_ZN3std3sys9backtrace28__rust_begin_short_backtrace17hb73d3602fb30b614E
	.cfi_endproc

	.section	.text._ZN3std3sys9backtrace28__rust_begin_short_backtrace17hfb2d142277314c1bE,"ax",@progbits
	.p2align	4
	.type	_ZN3std3sys9backtrace28__rust_begin_short_backtrace17hfb2d142277314c1bE,@function
_ZN3std3sys9backtrace28__rust_begin_short_backtrace17hfb2d142277314c1bE:
.Lfunc_begin16:
	.cfi_startproc
	.cfi_personality 155, DW.ref.rust_eh_personality
	.cfi_lsda 27, .Lexception16
	pushq	%rbp
	.cfi_def_cfa_offset 16
	pushq	%r15
	.cfi_def_cfa_offset 24
	pushq	%r14
	.cfi_def_cfa_offset 32
	pushq	%r13
	.cfi_def_cfa_offset 40
	pushq	%r12
	.cfi_def_cfa_offset 48
	pushq	%rbx
	.cfi_def_cfa_offset 56
	subq	$88, %rsp
	.cfi_def_cfa_offset 144
	.cfi_offset %rbx, -56
	.cfi_offset %r12, -48
	.cfi_offset %r13, -40
	.cfi_offset %r14, -32
	.cfi_offset %r15, -24
	.cfi_offset %rbp, -16
	movabsq	$9223372036854775807, %r14
	movq	%rdi, 8(%rsp)
	movq	%rsi, 16(%rsp)
	movl	$100000, %ebp
	movl	$1, %r12d
	movq	_ZN3std9panicking11panic_count18GLOBAL_PANIC_COUNT17h6b73b4a44f7b7da6E@GOTPCREL(%rip), %r13
	.p2align	4
.LBB26_1:
	movq	8(%rsp), %r15
	leaq	16(%r15), %rbx
	xorl	%eax, %eax
	lock		cmpxchgl	%r12d, 16(%r15)
	jne	.LBB26_2
.LBB26_3:
	movq	(%r13), %rax
	testq	%r14, %rax
	jne	.LBB26_5
	xorl	%eax, %eax
	movzbl	20(%r15), %ecx
	testb	%cl, %cl
	jne	.LBB26_8
.LBB26_18:
	incq	24(%r15)
	testb	%al, %al
	jne	.LBB26_23
	movq	(%r13), %rax
	testq	%r14, %rax
	jne	.LBB26_20
.LBB26_23:
	xorl	%eax, %eax
	xchgl	%eax, (%rbx)
	cmpl	$2, %eax
	je	.LBB26_24
.LBB26_25:
	decl	%ebp
	jne	.LBB26_1
	jmp	.LBB26_26
.LBB26_2:
.Ltmp271:
	movq	%rbx, %rdi
	callq	*_ZN3std3sys4sync5mutex5futex5Mutex14lock_contended17hf00a347cb8fe2a32E@GOTPCREL(%rip)
.Ltmp272:
	jmp	.LBB26_3
.LBB26_5:
.Ltmp273:
	callq	*_ZN3std9panicking11panic_count17is_zero_slow_path17he616e583ae2cd51bE@GOTPCREL(%rip)
.Ltmp274:
	xorb	$1, %al
	movzbl	20(%r15), %ecx
	testb	%cl, %cl
	je	.LBB26_18
	jmp	.LBB26_8
.LBB26_24:
.Ltmp283:
	movq	%rbx, %rdi
	callq	*_ZN3std3sys4sync5mutex5futex5Mutex4wake17h01da496fd8ff9537E@GOTPCREL(%rip)
.Ltmp284:
	jmp	.LBB26_25
.LBB26_20:
.Ltmp281:
	callq	*_ZN3std9panicking11panic_count17is_zero_slow_path17he616e583ae2cd51bE@GOTPCREL(%rip)
.Ltmp282:
	testb	%al, %al
	jne	.LBB26_23
	movb	$1, 20(%r15)
	jmp	.LBB26_23
.LBB26_26:
	leaq	16(%rsp), %rax
	movq	%rax, 72(%rsp)
	movq	_ZN4core3fmt3num3imp54_$LT$impl$u20$core..fmt..Display$u20$for$u20$usize$GT$3fmt17h3a72b45f740f88f2E@GOTPCREL(%rip), %rax
	movq	%rax, 80(%rsp)
	leaq	.Lanon.94be9b806268416248345155c2a8fe89.153(%rip), %rax
	movq	%rax, 24(%rsp)
	movq	$2, 32(%rsp)
	movq	$0, 56(%rsp)
	leaq	72(%rsp), %rax
	movq	%rax, 40(%rsp)
	movq	$1, 48(%rsp)
.Ltmp286:
	leaq	24(%rsp), %rdi
	callq	*_ZN3std2io5stdio6_print17h8048aa61843ec3e7E@GOTPCREL(%rip)
.Ltmp287:
	movq	8(%rsp), %rax
	lock		decq	(%rax)
	jne	.LBB26_29
	#MEMBARRIER
	leaq	8(%rsp), %rdi
	callq	_ZN5alloc4sync16Arc$LT$T$C$A$GT$9drop_slow17hcd7692ec7b8c2ff5E
.LBB26_29:
	#APP
	#NO_APP
	addq	$88, %rsp
	.cfi_def_cfa_offset 56
	popq	%rbx
	.cfi_def_cfa_offset 48
	popq	%r12
	.cfi_def_cfa_offset 40
	popq	%r13
	.cfi_def_cfa_offset 32
	popq	%r14
	.cfi_def_cfa_offset 24
	popq	%r15
	.cfi_def_cfa_offset 16
	popq	%rbp
	.cfi_def_cfa_offset 8
	retq
.LBB26_8:
	.cfi_def_cfa_offset 144
	movq	%rbx, 24(%rsp)
	movb	%al, 32(%rsp)
.Ltmp275:
	leaq	.Lanon.94be9b806268416248345155c2a8fe89.73(%rip), %rdi
	leaq	.Lanon.94be9b806268416248345155c2a8fe89.76(%rip), %rcx
	leaq	.Lanon.94be9b806268416248345155c2a8fe89.154(%rip), %r8
	leaq	24(%rsp), %rdx
	movl	$43, %esi
	callq	*_ZN4core6result13unwrap_failed17hbff75c171ca545e8E@GOTPCREL(%rip)
.Ltmp276:
	ud2
.LBB26_10:
.Ltmp285:
	jmp	.LBB26_12
.LBB26_11:
.Ltmp288:
.LBB26_12:
	movq	%rax, %rbx
	jmp	.LBB26_13
.LBB26_16:
.Ltmp277:
	movq	%rax, %rbx
.Ltmp278:
	leaq	24(%rsp), %rdi
	callq	_ZN4core3ptr106drop_in_place$LT$std..sync..poison..PoisonError$LT$std..sync..poison..mutex..MutexGuard$LT$u64$GT$$GT$$GT$17hdabc1feebe841b68E
.Ltmp279:
.LBB26_13:
	movq	8(%rsp), %rax
	lock		decq	(%rax)
	jne	.LBB26_15
	#MEMBARRIER
	leaq	8(%rsp), %rdi
	callq	_ZN5alloc4sync16Arc$LT$T$C$A$GT$9drop_slow17hcd7692ec7b8c2ff5E
.LBB26_15:
	movq	%rbx, %rdi
	callq	_Unwind_Resume@PLT
.LBB26_17:
.Ltmp280:
	callq	*_ZN4core9panicking16panic_in_cleanup17h6f48b941993644b5E@GOTPCREL(%rip)
.Lfunc_end26:
	.size	_ZN3std3sys9backtrace28__rust_begin_short_backtrace17hfb2d142277314c1bE, .Lfunc_end26-_ZN3std3sys9backtrace28__rust_begin_short_backtrace17hfb2d142277314c1bE
	.cfi_endproc
	.section	.gcc_except_table._ZN3std3sys9backtrace28__rust_begin_short_backtrace17hfb2d142277314c1bE,"a",@progbits
	.p2align	2, 0x0
GCC_except_table26:
.Lexception16:
	.byte	255
	.byte	155
	.uleb128 .Lttbase15-.Lttbaseref15
.Lttbaseref15:
	.byte	1
	.uleb128 .Lcst_end16-.Lcst_begin16
.Lcst_begin16:
	.uleb128 .Ltmp271-.Lfunc_begin16
	.uleb128 .Ltmp282-.Ltmp271
	.uleb128 .Ltmp285-.Lfunc_begin16
	.byte	0
	.uleb128 .Ltmp286-.Lfunc_begin16
	.uleb128 .Ltmp287-.Ltmp286
	.uleb128 .Ltmp288-.Lfunc_begin16
	.byte	0
	.uleb128 .Ltmp275-.Lfunc_begin16
	.uleb128 .Ltmp276-.Ltmp275
	.uleb128 .Ltmp277-.Lfunc_begin16
	.byte	0
	.uleb128 .Ltmp278-.Lfunc_begin16
	.uleb128 .Ltmp279-.Ltmp278
	.uleb128 .Ltmp280-.Lfunc_begin16
	.byte	1
	.uleb128 .Ltmp279-.Lfunc_begin16
	.uleb128 .Lfunc_end26-.Ltmp279
	.byte	0
	.byte	0
.Lcst_end16:
	.byte	127
	.byte	0
	.p2align	2, 0x0
.Lttbase15:
	.byte	0
	.p2align	2, 0x0

	.section	".text._ZN3std4sync6poison4once4Once15call_once_force28_$u7b$$u7b$closure$u7d$$u7d$17h731a49c62f9fdb5bE","ax",@progbits
	.p2align	4
	.type	_ZN3std4sync6poison4once4Once15call_once_force28_$u7b$$u7b$closure$u7d$$u7d$17h731a49c62f9fdb5bE,@function
_ZN3std4sync6poison4once4Once15call_once_force28_$u7b$$u7b$closure$u7d$$u7d$17h731a49c62f9fdb5bE:
	.cfi_startproc
	pushq	%r15
	.cfi_def_cfa_offset 16
	pushq	%r14
	.cfi_def_cfa_offset 24
	pushq	%r13
	.cfi_def_cfa_offset 32
	pushq	%r12
	.cfi_def_cfa_offset 40
	pushq	%rbx
	.cfi_def_cfa_offset 48
	subq	$32, %rsp
	.cfi_def_cfa_offset 80
	.cfi_offset %rbx, -48
	.cfi_offset %r12, -40
	.cfi_offset %r13, -32
	.cfi_offset %r14, -24
	.cfi_offset %r15, -16
	movq	(%rdi), %rax
	movq	(%rax), %r13
	movq	$0, (%rax)
	testq	%r13, %r13
	je	.LBB27_8
	leaq	12(%rsp), %rsi
	movl	$1000, %edi
	movl	$20, %edx
	callq	*_ZN4core3fmt3num3imp23_$LT$impl$u20$usize$GT$4_fmt17hfd7e763b9b703308E@GOTPCREL(%rip)
	movq	%rdx, %rbx
	testq	%rdx, %rdx
	js	.LBB27_2
	movq	%rax, %r14
	je	.LBB27_5
	callq	*_RNvCsb3o7Y5DtQ0O_7___rustc35___rust_no_alloc_shim_is_unstable_v2@GOTPCREL(%rip)
	movl	$1, %r15d
	movl	$1, %esi
	movq	%rbx, %rdi
	callq	*_RNvCsb3o7Y5DtQ0O_7___rustc12___rust_alloc@GOTPCREL(%rip)
	movq	%rax, %r12
	testq	%rax, %rax
	jne	.LBB27_7
	jmp	.LBB27_3
.LBB27_5:
	movl	$1, %r12d
.LBB27_7:
	movq	%r12, %rdi
	movq	%r14, %rsi
	movq	%rbx, %rdx
	callq	*memcpy@GOTPCREL(%rip)
	movq	%rbx, (%r13)
	movq	%r12, 8(%r13)
	movq	%rbx, 16(%r13)
	addq	$32, %rsp
	.cfi_def_cfa_offset 48
	popq	%rbx
	.cfi_def_cfa_offset 40
	popq	%r12
	.cfi_def_cfa_offset 32
	popq	%r13
	.cfi_def_cfa_offset 24
	popq	%r14
	.cfi_def_cfa_offset 16
	popq	%r15
	.cfi_def_cfa_offset 8
	retq
.LBB27_8:
	.cfi_def_cfa_offset 80
	leaq	.Lanon.94be9b806268416248345155c2a8fe89.53(%rip), %rdi
	callq	*_ZN4core6option13unwrap_failed17h5189ee9f1cf5c131E@GOTPCREL(%rip)
.LBB27_2:
	xorl	%r15d, %r15d
.LBB27_3:
	leaq	.Lanon.94be9b806268416248345155c2a8fe89.113(%rip), %rdx
	movq	%r15, %rdi
	movq	%rbx, %rsi
	callq	*_ZN5alloc7raw_vec12handle_error17hc389833aee8d6f48E@GOTPCREL(%rip)
.Lfunc_end27:
	.size	_ZN3std4sync6poison4once4Once15call_once_force28_$u7b$$u7b$closure$u7d$$u7d$17h731a49c62f9fdb5bE, .Lfunc_end27-_ZN3std4sync6poison4once4Once15call_once_force28_$u7b$$u7b$closure$u7d$$u7d$17h731a49c62f9fdb5bE
	.cfi_endproc

	.section	".text._ZN3std4sync6poison4once4Once15call_once_force28_$u7b$$u7b$closure$u7d$$u7d$17hab30f30dd0bdb7dbE","ax",@progbits
	.p2align	4
	.type	_ZN3std4sync6poison4once4Once15call_once_force28_$u7b$$u7b$closure$u7d$$u7d$17hab30f30dd0bdb7dbE,@function
_ZN3std4sync6poison4once4Once15call_once_force28_$u7b$$u7b$closure$u7d$$u7d$17hab30f30dd0bdb7dbE:
	.cfi_startproc
	pushq	%r15
	.cfi_def_cfa_offset 16
	pushq	%r14
	.cfi_def_cfa_offset 24
	pushq	%r13
	.cfi_def_cfa_offset 32
	pushq	%r12
	.cfi_def_cfa_offset 40
	pushq	%rbx
	.cfi_def_cfa_offset 48
	subq	$32, %rsp
	.cfi_def_cfa_offset 80
	.cfi_offset %rbx, -48
	.cfi_offset %r12, -40
	.cfi_offset %r13, -32
	.cfi_offset %r14, -24
	.cfi_offset %r15, -16
	movq	(%rdi), %rax
	movq	(%rax), %r13
	movq	$0, (%rax)
	testq	%r13, %r13
	je	.LBB28_8
	leaq	12(%rsp), %rsi
	movl	$4, %edi
	movl	$20, %edx
	callq	*_ZN4core3fmt3num3imp23_$LT$impl$u20$usize$GT$4_fmt17hfd7e763b9b703308E@GOTPCREL(%rip)
	movq	%rdx, %rbx
	testq	%rdx, %rdx
	js	.LBB28_2
	movq	%rax, %r14
	je	.LBB28_5
	callq	*_RNvCsb3o7Y5DtQ0O_7___rustc35___rust_no_alloc_shim_is_unstable_v2@GOTPCREL(%rip)
	movl	$1, %r15d
	movl	$1, %esi
	movq	%rbx, %rdi
	callq	*_RNvCsb3o7Y5DtQ0O_7___rustc12___rust_alloc@GOTPCREL(%rip)
	movq	%rax, %r12
	testq	%rax, %rax
	jne	.LBB28_7
	jmp	.LBB28_3
.LBB28_5:
	movl	$1, %r12d
.LBB28_7:
	movq	%r12, %rdi
	movq	%r14, %rsi
	movq	%rbx, %rdx
	callq	*memcpy@GOTPCREL(%rip)
	movq	%rbx, (%r13)
	movq	%r12, 8(%r13)
	movq	%rbx, 16(%r13)
	addq	$32, %rsp
	.cfi_def_cfa_offset 48
	popq	%rbx
	.cfi_def_cfa_offset 40
	popq	%r12
	.cfi_def_cfa_offset 32
	popq	%r13
	.cfi_def_cfa_offset 24
	popq	%r14
	.cfi_def_cfa_offset 16
	popq	%r15
	.cfi_def_cfa_offset 8
	retq
.LBB28_8:
	.cfi_def_cfa_offset 80
	leaq	.Lanon.94be9b806268416248345155c2a8fe89.53(%rip), %rdi
	callq	*_ZN4core6option13unwrap_failed17h5189ee9f1cf5c131E@GOTPCREL(%rip)
.LBB28_2:
	xorl	%r15d, %r15d
.LBB28_3:
	leaq	.Lanon.94be9b806268416248345155c2a8fe89.113(%rip), %rdx
	movq	%r15, %rdi
	movq	%rbx, %rsi
	callq	*_ZN5alloc7raw_vec12handle_error17hc389833aee8d6f48E@GOTPCREL(%rip)
.Lfunc_end28:
	.size	_ZN3std4sync6poison4once4Once15call_once_force28_$u7b$$u7b$closure$u7d$$u7d$17hab30f30dd0bdb7dbE, .Lfunc_end28-_ZN3std4sync6poison4once4Once15call_once_force28_$u7b$$u7b$closure$u7d$$u7d$17hab30f30dd0bdb7dbE
	.cfi_endproc

	.section	".text.unlikely._ZN3std4sync9once_lock17OnceLock$LT$T$GT$10initialize17h4c97a1ee18f6e182E","ax",@progbits
	.type	_ZN3std4sync9once_lock17OnceLock$LT$T$GT$10initialize17h4c97a1ee18f6e182E,@function
_ZN3std4sync9once_lock17OnceLock$LT$T$GT$10initialize17h4c97a1ee18f6e182E:
	.cfi_startproc
	movl	_ZN72_$LT$rust_strengths_demo..Args$u20$as$u20$clap_builder..derive..Args$GT$12augment_args13DEFAULT_VALUE17he8433d22359dd6b3E+24(%rip), %eax
	cmpl	$3, %eax
	jne	.LBB29_1
	retq
.LBB29_1:
	subq	$40, %rsp
	.cfi_def_cfa_offset 48
	leaq	_ZN72_$LT$rust_strengths_demo..Args$u20$as$u20$clap_builder..derive..Args$GT$12augment_args13DEFAULT_VALUE17he8433d22359dd6b3E(%rip), %rax
	leaq	24(%rsp), %rcx
	movq	%rax, (%rcx)
	leaq	15(%rsp), %rax
	movq	%rax, 8(%rcx)
	leaq	16(%rsp), %rdx
	movq	%rcx, (%rdx)
	leaq	_ZN72_$LT$rust_strengths_demo..Args$u20$as$u20$clap_builder..derive..Args$GT$12augment_args13DEFAULT_VALUE17he8433d22359dd6b3E+24(%rip), %rdi
	leaq	.Lanon.94be9b806268416248345155c2a8fe89.49(%rip), %rcx
	leaq	.Lanon.94be9b806268416248345155c2a8fe89.51(%rip), %r8
	pushq	$1
	.cfi_adjust_cfa_offset 8
	popq	%rsi
	.cfi_adjust_cfa_offset -8
	callq	*_ZN3std3sys4sync4once5futex4Once4call17h174e009393e4bde6E@GOTPCREL(%rip)
	addq	$40, %rsp
	.cfi_def_cfa_offset 8
	retq
.Lfunc_end29:
	.size	_ZN3std4sync9once_lock17OnceLock$LT$T$GT$10initialize17h4c97a1ee18f6e182E, .Lfunc_end29-_ZN3std4sync9once_lock17OnceLock$LT$T$GT$10initialize17h4c97a1ee18f6e182E
	.cfi_endproc

	.section	".text.unlikely._ZN3std4sync9once_lock17OnceLock$LT$T$GT$10initialize17h98ea53dfee8e7590E","ax",@progbits
	.type	_ZN3std4sync9once_lock17OnceLock$LT$T$GT$10initialize17h98ea53dfee8e7590E,@function
_ZN3std4sync9once_lock17OnceLock$LT$T$GT$10initialize17h98ea53dfee8e7590E:
	.cfi_startproc
	movl	_ZN72_$LT$rust_strengths_demo..Args$u20$as$u20$clap_builder..derive..Args$GT$12augment_args13DEFAULT_VALUE17hba229da0ff112a41E+24(%rip), %eax
	cmpl	$3, %eax
	jne	.LBB30_1
	retq
.LBB30_1:
	subq	$40, %rsp
	.cfi_def_cfa_offset 48
	leaq	_ZN72_$LT$rust_strengths_demo..Args$u20$as$u20$clap_builder..derive..Args$GT$12augment_args13DEFAULT_VALUE17hba229da0ff112a41E(%rip), %rax
	leaq	24(%rsp), %rcx
	movq	%rax, (%rcx)
	leaq	15(%rsp), %rax
	movq	%rax, 8(%rcx)
	leaq	16(%rsp), %rdx
	movq	%rcx, (%rdx)
	leaq	_ZN72_$LT$rust_strengths_demo..Args$u20$as$u20$clap_builder..derive..Args$GT$12augment_args13DEFAULT_VALUE17hba229da0ff112a41E+24(%rip), %rdi
	leaq	.Lanon.94be9b806268416248345155c2a8fe89.52(%rip), %rcx
	leaq	.Lanon.94be9b806268416248345155c2a8fe89.51(%rip), %r8
	pushq	$1
	.cfi_adjust_cfa_offset 8
	popq	%rsi
	.cfi_adjust_cfa_offset -8
	callq	*_ZN3std3sys4sync4once5futex4Once4call17h174e009393e4bde6E@GOTPCREL(%rip)
	addq	$40, %rsp
	.cfi_def_cfa_offset 8
	retq
.Lfunc_end30:
	.size	_ZN3std4sync9once_lock17OnceLock$LT$T$GT$10initialize17h98ea53dfee8e7590E, .Lfunc_end30-_ZN3std4sync9once_lock17OnceLock$LT$T$GT$10initialize17h98ea53dfee8e7590E
	.cfi_endproc

	.section	".text._ZN42_$LT$$RF$T$u20$as$u20$core..fmt..Debug$GT$3fmt17h0ca1adf92150924fE","ax",@progbits
	.p2align	4
	.type	_ZN42_$LT$$RF$T$u20$as$u20$core..fmt..Debug$GT$3fmt17h0ca1adf92150924fE,@function
_ZN42_$LT$$RF$T$u20$as$u20$core..fmt..Debug$GT$3fmt17h0ca1adf92150924fE:
	.cfi_startproc
	movq	(%rdi), %rdi
	jmpq	*_ZN57_$LT$core..time..Duration$u20$as$u20$core..fmt..Debug$GT$3fmt17h47086716cd5519b2E@GOTPCREL(%rip)
.Lfunc_end31:
	.size	_ZN42_$LT$$RF$T$u20$as$u20$core..fmt..Debug$GT$3fmt17h0ca1adf92150924fE, .Lfunc_end31-_ZN42_$LT$$RF$T$u20$as$u20$core..fmt..Debug$GT$3fmt17h0ca1adf92150924fE
	.cfi_endproc

	.section	".text._ZN42_$LT$$RF$T$u20$as$u20$core..fmt..Debug$GT$3fmt17h3ac1f8579abeb935E","ax",@progbits
	.p2align	4
	.type	_ZN42_$LT$$RF$T$u20$as$u20$core..fmt..Debug$GT$3fmt17h3ac1f8579abeb935E,@function
_ZN42_$LT$$RF$T$u20$as$u20$core..fmt..Debug$GT$3fmt17h3ac1f8579abeb935E:
	.cfi_startproc
	movq	%rsi, %rax
	movq	(%rdi), %rcx
	movzbl	(%rcx), %ecx
	leaq	.Lswitch.table._ZN42_$LT$$RF$T$u20$as$u20$core..fmt..Debug$GT$3fmt17h3ac1f8579abeb935E(%rip), %rdx
	movq	(%rdx,%rcx,8), %rdx
	leaq	.Lswitch.table._ZN42_$LT$$RF$T$u20$as$u20$core..fmt..Debug$GT$3fmt17h3ac1f8579abeb935E.500.rel(%rip), %rdi
	movslq	(%rdi,%rcx,4), %rsi
	addq	%rdi, %rsi
	movq	%rax, %rdi
	jmpq	*_ZN4core3fmt9Formatter9write_str17h07b60027e753aa50E@GOTPCREL(%rip)
.Lfunc_end32:
	.size	_ZN42_$LT$$RF$T$u20$as$u20$core..fmt..Debug$GT$3fmt17h3ac1f8579abeb935E, .Lfunc_end32-_ZN42_$LT$$RF$T$u20$as$u20$core..fmt..Debug$GT$3fmt17h3ac1f8579abeb935E
	.cfi_endproc

	.section	".text._ZN42_$LT$$RF$T$u20$as$u20$core..fmt..Debug$GT$3fmt17ha505672e1e79bea0E","ax",@progbits
	.p2align	4
	.type	_ZN42_$LT$$RF$T$u20$as$u20$core..fmt..Debug$GT$3fmt17ha505672e1e79bea0E,@function
_ZN42_$LT$$RF$T$u20$as$u20$core..fmt..Debug$GT$3fmt17ha505672e1e79bea0E:
	.cfi_startproc
	movq	(%rdi), %rdi
	jmpq	*_ZN58_$LT$std..io..error..Error$u20$as$u20$core..fmt..Debug$GT$3fmt17h13189c372db49df4E@GOTPCREL(%rip)
.Lfunc_end33:
	.size	_ZN42_$LT$$RF$T$u20$as$u20$core..fmt..Debug$GT$3fmt17ha505672e1e79bea0E, .Lfunc_end33-_ZN42_$LT$$RF$T$u20$as$u20$core..fmt..Debug$GT$3fmt17ha505672e1e79bea0E
	.cfi_endproc

	.section	".text._ZN42_$LT$$RF$T$u20$as$u20$core..fmt..Debug$GT$3fmt17hbe313f800de11ed3E","ax",@progbits
	.p2align	4
	.type	_ZN42_$LT$$RF$T$u20$as$u20$core..fmt..Debug$GT$3fmt17hbe313f800de11ed3E,@function
_ZN42_$LT$$RF$T$u20$as$u20$core..fmt..Debug$GT$3fmt17hbe313f800de11ed3E:
	.cfi_startproc
	movq	%rsi, %rdx
	movq	(%rdi), %rax
	movq	8(%rax), %rdi
	movq	16(%rax), %rsi
	jmpq	*_ZN40_$LT$str$u20$as$u20$core..fmt..Debug$GT$3fmt17hf252024aeb60189aE@GOTPCREL(%rip)
.Lfunc_end34:
	.size	_ZN42_$LT$$RF$T$u20$as$u20$core..fmt..Debug$GT$3fmt17hbe313f800de11ed3E, .Lfunc_end34-_ZN42_$LT$$RF$T$u20$as$u20$core..fmt..Debug$GT$3fmt17hbe313f800de11ed3E
	.cfi_endproc

	.section	".text._ZN44_$LT$$RF$T$u20$as$u20$core..fmt..Display$GT$3fmt17h22f4f7843ed3c72eE","ax",@progbits
	.p2align	4
	.type	_ZN44_$LT$$RF$T$u20$as$u20$core..fmt..Display$GT$3fmt17h22f4f7843ed3c72eE,@function
_ZN44_$LT$$RF$T$u20$as$u20$core..fmt..Display$GT$3fmt17h22f4f7843ed3c72eE:
	.cfi_startproc
	movq	%rsi, %rdx
	movq	(%rdi), %rax
	movq	8(%rax), %rdi
	movq	16(%rax), %rsi
	jmpq	*_ZN42_$LT$str$u20$as$u20$core..fmt..Display$GT$3fmt17h67d11eb073ed0affE@GOTPCREL(%rip)
.Lfunc_end35:
	.size	_ZN44_$LT$$RF$T$u20$as$u20$core..fmt..Display$GT$3fmt17h22f4f7843ed3c72eE, .Lfunc_end35-_ZN44_$LT$$RF$T$u20$as$u20$core..fmt..Display$GT$3fmt17h22f4f7843ed3c72eE
	.cfi_endproc

	.section	".text._ZN44_$LT$$RF$T$u20$as$u20$core..fmt..Display$GT$3fmt17hcca54384d9dbaa67E","ax",@progbits
	.p2align	4
	.type	_ZN44_$LT$$RF$T$u20$as$u20$core..fmt..Display$GT$3fmt17hcca54384d9dbaa67E,@function
_ZN44_$LT$$RF$T$u20$as$u20$core..fmt..Display$GT$3fmt17hcca54384d9dbaa67E:
	.cfi_startproc
	movq	%rsi, %rdx
	movq	(%rdi), %rax
	movq	8(%rdi), %rsi
	movq	%rax, %rdi
	jmpq	*_ZN42_$LT$str$u20$as$u20$core..fmt..Display$GT$3fmt17h67d11eb073ed0affE@GOTPCREL(%rip)
.Lfunc_end36:
	.size	_ZN44_$LT$$RF$T$u20$as$u20$core..fmt..Display$GT$3fmt17hcca54384d9dbaa67E, .Lfunc_end36-_ZN44_$LT$$RF$T$u20$as$u20$core..fmt..Display$GT$3fmt17hcca54384d9dbaa67E
	.cfi_endproc

	.section	.text._ZN4core3fmt5Write10write_char17h8d15fc6703b22056E,"ax",@progbits
	.p2align	4
	.type	_ZN4core3fmt5Write10write_char17h8d15fc6703b22056E,@function
_ZN4core3fmt5Write10write_char17h8d15fc6703b22056E:
.Lfunc_begin17:
	.cfi_startproc
	.cfi_personality 155, DW.ref.rust_eh_personality
	.cfi_lsda 27, .Lexception17
	pushq	%r15
	.cfi_def_cfa_offset 16
	pushq	%r14
	.cfi_def_cfa_offset 24
	pushq	%rbx
	.cfi_def_cfa_offset 32
	subq	$16, %rsp
	.cfi_def_cfa_offset 48
	.cfi_offset %rbx, -32
	.cfi_offset %r14, -24
	.cfi_offset %r15, -16
	movq	%rdi, %rbx
	movl	$0, 12(%rsp)
	cmpl	$128, %esi
	jae	.LBB37_1
	movb	%sil, 12(%rsp)
	movl	$1, %edx
	jmp	.LBB37_5
.LBB37_1:
	movl	%esi, %eax
	cmpl	$2048, %esi
	jae	.LBB37_2
	shrl	$6, %eax
	orb	$-64, %al
	movb	%al, 12(%rsp)
	andb	$63, %sil
	orb	$-128, %sil
	movb	%sil, 13(%rsp)
	movl	$2, %edx
	jmp	.LBB37_5
.LBB37_2:
	cmpl	$65536, %esi
	jae	.LBB37_3
	shrl	$12, %eax
	orb	$-32, %al
	movb	%al, 12(%rsp)
	movl	%esi, %eax
	shrl	$6, %eax
	andb	$63, %al
	orb	$-128, %al
	movb	%al, 13(%rsp)
	andb	$63, %sil
	orb	$-128, %sil
	movb	%sil, 14(%rsp)
	movl	$3, %edx
	jmp	.LBB37_5
.LBB37_3:
	shrl	$18, %eax
	orb	$-16, %al
	movb	%al, 12(%rsp)
	movl	%esi, %eax
	shrl	$12, %eax
	andb	$63, %al
	orb	$-128, %al
	movb	%al, 13(%rsp)
	movl	%esi, %eax
	shrl	$6, %eax
	andb	$63, %al
	orb	$-128, %al
	movb	%al, 14(%rsp)
	andb	$63, %sil
	orb	$-128, %sil
	movb	%sil, 15(%rsp)
	movl	$4, %edx
.LBB37_5:
	movq	(%rbx), %rdi
	leaq	12(%rsp), %rsi
	callq	_ZN3std2io5Write9write_all17h2007df0875e4e80eE
	movq	%rax, %r14
	testq	%rax, %rax
	je	.LBB37_9
	leaq	8(%rbx), %r15
	cmpq	$0, 8(%rbx)
	je	.LBB37_8
.Ltmp289:
	movq	%r15, %rdi
	callq	_ZN4core3ptr42drop_in_place$LT$std..io..error..Error$GT$17hb5a2048f539dab14E
.Ltmp290:
.LBB37_8:
	movq	%r14, (%r15)
.LBB37_9:
	testq	%r14, %r14
	setne	%al
	addq	$16, %rsp
	.cfi_def_cfa_offset 32
	popq	%rbx
	.cfi_def_cfa_offset 24
	popq	%r14
	.cfi_def_cfa_offset 16
	popq	%r15
	.cfi_def_cfa_offset 8
	retq
.LBB37_12:
	.cfi_def_cfa_offset 48
.Ltmp291:
	movq	%r14, (%r15)
	movq	%rax, %rdi
	callq	_Unwind_Resume@PLT
.Lfunc_end37:
	.size	_ZN4core3fmt5Write10write_char17h8d15fc6703b22056E, .Lfunc_end37-_ZN4core3fmt5Write10write_char17h8d15fc6703b22056E
	.cfi_endproc
	.section	.gcc_except_table._ZN4core3fmt5Write10write_char17h8d15fc6703b22056E,"a",@progbits
	.p2align	2, 0x0
GCC_except_table37:
.Lexception17:
	.byte	255
	.byte	255
	.byte	1
	.uleb128 .Lcst_end17-.Lcst_begin17
.Lcst_begin17:
	.uleb128 .Lfunc_begin17-.Lfunc_begin17
	.uleb128 .Ltmp289-.Lfunc_begin17
	.byte	0
	.byte	0
	.uleb128 .Ltmp289-.Lfunc_begin17
	.uleb128 .Ltmp290-.Ltmp289
	.uleb128 .Ltmp291-.Lfunc_begin17
	.byte	0
	.uleb128 .Ltmp290-.Lfunc_begin17
	.uleb128 .Lfunc_end37-.Ltmp290
	.byte	0
	.byte	0
.Lcst_end17:
	.p2align	2, 0x0

	.section	.text._ZN4core3fmt5Write9write_fmt17h16335356db34fdc9E,"ax",@progbits
	.p2align	4
	.type	_ZN4core3fmt5Write9write_fmt17h16335356db34fdc9E,@function
_ZN4core3fmt5Write9write_fmt17h16335356db34fdc9E:
	.cfi_startproc
	movq	%rsi, %rdx
	leaq	.Lanon.94be9b806268416248345155c2a8fe89.63(%rip), %rsi
	jmpq	*_ZN4core3fmt5write17h7d767db0d1b2d697E@GOTPCREL(%rip)
.Lfunc_end38:
	.size	_ZN4core3fmt5Write9write_fmt17h16335356db34fdc9E, .Lfunc_end38-_ZN4core3fmt5Write9write_fmt17h16335356db34fdc9E
	.cfi_endproc

	.section	.text._ZN4core3fmt5Write9write_fmt17h6a8978b158375ebbE,"ax",@progbits
	.p2align	4
	.type	_ZN4core3fmt5Write9write_fmt17h6a8978b158375ebbE,@function
_ZN4core3fmt5Write9write_fmt17h6a8978b158375ebbE:
	.cfi_startproc
	movq	%rsi, %rdx
	leaq	.Lanon.94be9b806268416248345155c2a8fe89.38(%rip), %rsi
	jmpq	*_ZN4core3fmt5write17h7d767db0d1b2d697E@GOTPCREL(%rip)
.Lfunc_end39:
	.size	_ZN4core3fmt5Write9write_fmt17h6a8978b158375ebbE, .Lfunc_end39-_ZN4core3fmt5Write9write_fmt17h6a8978b158375ebbE
	.cfi_endproc

	.section	".text._ZN4core3num62_$LT$impl$u20$core..str..traits..FromStr$u20$for$u20$usize$GT$8from_str17hd83ab614b552c022E","ax",@progbits
	.p2align	4
	.type	_ZN4core3num62_$LT$impl$u20$core..str..traits..FromStr$u20$for$u20$usize$GT$8from_str17hd83ab614b552c022E,@function
_ZN4core3num62_$LT$impl$u20$core..str..traits..FromStr$u20$for$u20$usize$GT$8from_str17hd83ab614b552c022E:
	.cfi_startproc
	cmpq	$1, %rdx
	je	.LBB40_3
	movq	%rdx, %rcx
	testq	%rdx, %rdx
	jne	.LBB40_8
	movb	$0, 1(%rdi)
	movb	$1, %al
	movb	%al, (%rdi)
	movq	%rdi, %rax
	retq
.LBB40_3:
	movzbl	(%rsi), %eax
	cmpl	$43, %eax
	je	.LBB40_17
	movl	$1, %ecx
	cmpl	$45, %eax
	jne	.LBB40_5
.LBB40_17:
	movb	$1, 1(%rdi)
	movb	$1, %al
	movb	%al, (%rdi)
	movq	%rdi, %rax
	retq
.LBB40_8:
	cmpb	$43, (%rsi)
	jne	.LBB40_20
	incq	%rsi
	leaq	-1(%rcx), %rax
	cmpq	$18, %rcx
	movq	%rax, %rcx
	jb	.LBB40_5
.LBB40_10:
	xorl	%r8d, %r8d
	movl	$10, %r9d
	xorl	%eax, %eax
	.p2align	4
.LBB40_11:
	cmpq	%r8, %rcx
	je	.LBB40_12
	mulq	%r9
	seto	%r10b
	movzbl	(%rsi,%r8), %edx
	addl	$-48, %edx
	cmpl	$9, %edx
	ja	.LBB40_17
	testb	%r10b, %r10b
	jne	.LBB40_16
	movl	%edx, %edx
	incq	%r8
	addq	%rdx, %rax
	jae	.LBB40_11
.LBB40_16:
	movb	$2, 1(%rdi)
	movb	$1, %al
	movb	%al, (%rdi)
	movq	%rdi, %rax
	retq
.LBB40_20:
	cmpq	$17, %rcx
	jae	.LBB40_10
.LBB40_5:
	xorl	%edx, %edx
	xorl	%eax, %eax
	.p2align	4
.LBB40_6:
	movzbl	(%rsi,%rdx), %r8d
	addl	$-48, %r8d
	cmpl	$9, %r8d
	ja	.LBB40_17
	leaq	(%rax,%rax,4), %rax
	movl	%r8d, %r8d
	leaq	(%r8,%rax,2), %rax
	incq	%rdx
	cmpq	%rdx, %rcx
	jne	.LBB40_6
.LBB40_12:
	movq	%rax, 8(%rdi)
	xorl	%eax, %eax
	movb	%al, (%rdi)
	movq	%rdi, %rax
	retq
.Lfunc_end40:
	.size	_ZN4core3num62_$LT$impl$u20$core..str..traits..FromStr$u20$for$u20$usize$GT$8from_str17hd83ab614b552c022E, .Lfunc_end40-_ZN4core3num62_$LT$impl$u20$core..str..traits..FromStr$u20$for$u20$usize$GT$8from_str17hd83ab614b552c022E
	.cfi_endproc

	.section	".text._ZN4core3ops8function6FnOnce40call_once$u7b$$u7b$vtable.shim$u7d$$u7d$17h24543364622fd14eE","ax",@progbits
	.p2align	4
	.type	_ZN4core3ops8function6FnOnce40call_once$u7b$$u7b$vtable.shim$u7d$$u7d$17h24543364622fd14eE,@function
_ZN4core3ops8function6FnOnce40call_once$u7b$$u7b$vtable.shim$u7d$$u7d$17h24543364622fd14eE:
.Lfunc_begin18:
	.cfi_startproc
	.cfi_personality 155, DW.ref.rust_eh_personality
	.cfi_lsda 27, .Lexception18
	pushq	%rbp
	.cfi_def_cfa_offset 16
	pushq	%r15
	.cfi_def_cfa_offset 24
	pushq	%r14
	.cfi_def_cfa_offset 32
	pushq	%r13
	.cfi_def_cfa_offset 40
	pushq	%r12
	.cfi_def_cfa_offset 48
	pushq	%rbx
	.cfi_def_cfa_offset 56
	subq	$104, %rsp
	.cfi_def_cfa_offset 160
	.cfi_offset %rbx, -56
	.cfi_offset %r12, -48
	.cfi_offset %r13, -40
	.cfi_offset %r14, -32
	.cfi_offset %r15, -24
	.cfi_offset %rbp, -16
	movq	%rdi, %rbx
	movq	32(%rdi), %rdi
	lock		incq	(%rdi)
	jle	.LBB41_7
	leaq	32(%rbx), %r14
	movb	$1, %bpl
.Ltmp292:
	callq	*_ZN3std6thread7current11set_current17h0c95618ac72d48f7E@GOTPCREL(%rip)
.Ltmp293:
	testq	%rax, %rax
	jne	.LBB41_3
.Ltmp303:
	movq	%r14, %rdi
	callq	*_ZN3std6thread6Thread5cname17hc19ac5f2c85cd3d5E@GOTPCREL(%rip)
.Ltmp304:
	testq	%rax, %rax
	je	.LBB41_26
.Ltmp305:
	movq	%rax, %rdi
	movq	%rdx, %rsi
	callq	*_ZN3std3sys3pal4unix6thread6Thread8set_name17hbac6c688d7170644E@GOTPCREL(%rip)
.Ltmp306:
.LBB41_26:
	movq	48(%rbx), %r15
	movq	56(%rbx), %r12
	movups	16(%rbx), %xmm0
	movaps	%xmm0, 64(%rsp)
	movups	(%rbx), %xmm0
	movaps	%xmm0, 48(%rsp)
	leaq	80(%rsp), %r13
	movq	%r15, 80(%rsp)
	movq	%r12, 88(%rsp)
.Ltmp307:
	leaq	48(%rsp), %rdi
	callq	_ZN3std3sys9backtrace28__rust_begin_short_backtrace17ha1d0caad70c34cf0E
.Ltmp308:
.Ltmp310:
	movq	%r15, %rdi
	movq	%r12, %rsi
	callq	_ZN3std3sys9backtrace28__rust_begin_short_backtrace17hfb2d142277314c1bE
.Ltmp311:
	xorl	%r12d, %r12d
	movq	40(%rbx), %r15
	cmpq	$0, 24(%r15)
	je	.LBB41_40
.LBB41_35:
	movq	32(%r15), %rbp
	testq	%rbp, %rbp
	je	.LBB41_40
	movq	40(%r15), %r13
	movq	(%r13), %rax
	testq	%rax, %rax
	je	.LBB41_38
.Ltmp316:
	movq	%rbp, %rdi
	callq	*%rax
.Ltmp317:
.LBB41_38:
	movq	8(%r13), %rsi
	testq	%rsi, %rsi
	je	.LBB41_40
	movq	16(%r13), %rdx
	movq	%rbp, %rdi
	callq	*_RNvCsb3o7Y5DtQ0O_7___rustc14___rust_dealloc@GOTPCREL(%rip)
.LBB41_40:
	movq	$1, 24(%r15)
	movq	%r12, 32(%r15)
	movq	32(%rsp), %rax
	movq	%rax, 40(%r15)
	movq	40(%rbx), %rax
	movq	%rax, 24(%rsp)
	lock		decq	(%rax)
	jne	.LBB41_42
	#MEMBARRIER
	xorl	%ebp, %ebp
.Ltmp319:
	leaq	24(%rsp), %rdi
	callq	*_ZN5alloc4sync16Arc$LT$T$C$A$GT$9drop_slow17hb815cdd2a5afdbb3E@GOTPCREL(%rip)
.Ltmp320:
.LBB41_42:
	movq	(%r14), %rax
	lock		decq	(%rax)
	jne	.LBB41_44
	#MEMBARRIER
	movq	%r14, %rdi
	callq	*_ZN5alloc4sync16Arc$LT$T$C$A$GT$9drop_slow17h0cfdd8536c45d5f7E@GOTPCREL(%rip)
.LBB41_44:
	addq	$104, %rsp
	.cfi_def_cfa_offset 56
	popq	%rbx
	.cfi_def_cfa_offset 48
	popq	%r12
	.cfi_def_cfa_offset 40
	popq	%r13
	.cfi_def_cfa_offset 32
	popq	%r14
	.cfi_def_cfa_offset 24
	popq	%r15
	.cfi_def_cfa_offset 16
	popq	%rbp
	.cfi_def_cfa_offset 8
	retq
.LBB41_3:
	.cfi_def_cfa_offset 160
	movq	%rax, %r15
	movq	%rax, 40(%rsp)
	leaq	.Lanon.94be9b806268416248345155c2a8fe89.61(%rip), %rax
	movq	%rax, 48(%rsp)
	movq	$1, 56(%rsp)
	movq	$8, 64(%rsp)
	xorps	%xmm0, %xmm0
	movups	%xmm0, 72(%rsp)
.Ltmp294:
	leaq	15(%rsp), %rdi
	leaq	48(%rsp), %rsi
	callq	_ZN3std2io5Write9write_fmt17h07c47c27ddc1f0fdE
.Ltmp295:
	movq	%rax, 24(%rsp)
	testq	%rax, %rax
	je	.LBB41_6
.Ltmp296:
	leaq	24(%rsp), %rdi
	callq	_ZN4core3ptr42drop_in_place$LT$std..io..error..Error$GT$17hb5a2048f539dab14E
.Ltmp297:
.LBB41_6:
.Ltmp298:
	callq	*_ZN3std7process5abort17h06455ad7a7c4a35bE@GOTPCREL(%rip)
.Ltmp299:
.LBB41_7:
	ud2
.LBB41_45:
.Ltmp318:
	movq	%rax, 16(%rsp)
	movq	8(%r13), %rsi
	testq	%rsi, %rsi
	je	.LBB41_47
	movq	16(%r13), %rdx
	movq	%rbp, %rdi
	callq	*_RNvCsb3o7Y5DtQ0O_7___rustc14___rust_dealloc@GOTPCREL(%rip)
.LBB41_47:
	movq	$1, 24(%r15)
	movq	%r12, 32(%r15)
	movq	32(%rsp), %rax
	movq	%rax, 40(%r15)
	movb	$1, %bpl
	xorl	%r15d, %r15d
	jmp	.LBB41_9
.LBB41_31:
.Ltmp312:
	movq	%rax, %r12
	jmp	.LBB41_32
.LBB41_29:
.Ltmp309:
	movq	%rax, %r12
	lock		decq	(%r15)
	jne	.LBB41_32
	#MEMBARRIER
	movq	%r13, %rdi
	callq	_ZN5alloc4sync16Arc$LT$T$C$A$GT$9drop_slow17hcd7692ec7b8c2ff5E
.LBB41_32:
.Ltmp313:
	movq	%r12, %rdi
	callq	*_ZN3std9panicking12catch_unwind7cleanup17h74caa9c2ada56165E@GOTPCREL(%rip)
	movq	%rdx, 32(%rsp)
.Ltmp314:
	movq	%rax, %r12
	movq	40(%rbx), %r15
	cmpq	$0, 24(%r15)
	jne	.LBB41_35
	jmp	.LBB41_40
.LBB41_48:
.Ltmp315:
	callq	*_ZN4core9panicking19panic_cannot_unwind17hf975c85fc7bfab05E@GOTPCREL(%rip)
.LBB41_19:
.Ltmp300:
	movq	%rax, 16(%rsp)
	lock		decq	(%r15)
	movb	$1, %bpl
	jne	.LBB41_20
	#MEMBARRIER
.Ltmp301:
	leaq	40(%rsp), %rdi
	callq	*_ZN5alloc4sync16Arc$LT$T$C$A$GT$9drop_slow17h0cfdd8536c45d5f7E@GOTPCREL(%rip)
.Ltmp302:
	movb	$1, %r15b
	jmp	.LBB41_9
.LBB41_20:
	movb	$1, %r15b
	jmp	.LBB41_9
.LBB41_8:
.Ltmp321:
	movq	%rax, 16(%rsp)
	movl	%ebp, %r15d
.LBB41_9:
	movq	(%r14), %rax
	lock		decq	(%rax)
	jne	.LBB41_11
	#MEMBARRIER
.Ltmp322:
	movq	%r14, %rdi
	callq	*_ZN5alloc4sync16Arc$LT$T$C$A$GT$9drop_slow17h0cfdd8536c45d5f7E@GOTPCREL(%rip)
.Ltmp323:
.LBB41_11:
	testb	%r15b, %r15b
	je	.LBB41_15
	movq	48(%rbx), %rax
	lock		decq	(%rax)
	jne	.LBB41_14
	leaq	48(%rbx), %rdi
	#MEMBARRIER
	callq	_ZN5alloc4sync16Arc$LT$T$C$A$GT$9drop_slow17hcd7692ec7b8c2ff5E
.LBB41_14:
.Ltmp324:
	movq	%rbx, %rdi
	callq	_ZN4core3ptr60drop_in_place$LT$std..thread..spawnhook..ChildSpawnHooks$GT$17h04e3f0c35efce032E
.Ltmp325:
.LBB41_15:
	testb	%bpl, %bpl
	je	.LBB41_18
	movq	40(%rbx), %rax
	lock		decq	(%rax)
	jne	.LBB41_18
	addq	$40, %rbx
	#MEMBARRIER
.Ltmp326:
	movq	%rbx, %rdi
	callq	*_ZN5alloc4sync16Arc$LT$T$C$A$GT$9drop_slow17hb815cdd2a5afdbb3E@GOTPCREL(%rip)
.Ltmp327:
.LBB41_18:
	movq	16(%rsp), %rdi
	callq	_Unwind_Resume@PLT
.LBB41_22:
.Ltmp328:
	callq	*_ZN4core9panicking16panic_in_cleanup17h6f48b941993644b5E@GOTPCREL(%rip)
.Lfunc_end41:
	.size	_ZN4core3ops8function6FnOnce40call_once$u7b$$u7b$vtable.shim$u7d$$u7d$17h24543364622fd14eE, .Lfunc_end41-_ZN4core3ops8function6FnOnce40call_once$u7b$$u7b$vtable.shim$u7d$$u7d$17h24543364622fd14eE
	.cfi_endproc
	.section	".gcc_except_table._ZN4core3ops8function6FnOnce40call_once$u7b$$u7b$vtable.shim$u7d$$u7d$17h24543364622fd14eE","a",@progbits
	.p2align	2, 0x0
GCC_except_table41:
.Lexception18:
	.byte	255
	.byte	155
	.uleb128 .Lttbase16-.Lttbaseref16
.Lttbaseref16:
	.byte	1
	.uleb128 .Lcst_end18-.Lcst_begin18
.Lcst_begin18:
	.uleb128 .Ltmp292-.Lfunc_begin18
	.uleb128 .Ltmp306-.Ltmp292
	.uleb128 .Ltmp321-.Lfunc_begin18
	.byte	0
	.uleb128 .Ltmp307-.Lfunc_begin18
	.uleb128 .Ltmp308-.Ltmp307
	.uleb128 .Ltmp309-.Lfunc_begin18
	.byte	5
	.uleb128 .Ltmp310-.Lfunc_begin18
	.uleb128 .Ltmp311-.Ltmp310
	.uleb128 .Ltmp312-.Lfunc_begin18
	.byte	7
	.uleb128 .Ltmp316-.Lfunc_begin18
	.uleb128 .Ltmp317-.Ltmp316
	.uleb128 .Ltmp318-.Lfunc_begin18
	.byte	0
	.uleb128 .Ltmp319-.Lfunc_begin18
	.uleb128 .Ltmp320-.Ltmp319
	.uleb128 .Ltmp321-.Lfunc_begin18
	.byte	0
	.uleb128 .Ltmp320-.Lfunc_begin18
	.uleb128 .Ltmp294-.Ltmp320
	.byte	0
	.byte	0
	.uleb128 .Ltmp294-.Lfunc_begin18
	.uleb128 .Ltmp299-.Ltmp294
	.uleb128 .Ltmp300-.Lfunc_begin18
	.byte	0
	.uleb128 .Ltmp313-.Lfunc_begin18
	.uleb128 .Ltmp314-.Ltmp313
	.uleb128 .Ltmp315-.Lfunc_begin18
	.byte	1
	.uleb128 .Ltmp301-.Lfunc_begin18
	.uleb128 .Ltmp327-.Ltmp301
	.uleb128 .Ltmp328-.Lfunc_begin18
	.byte	1
	.uleb128 .Ltmp327-.Lfunc_begin18
	.uleb128 .Lfunc_end41-.Ltmp327
	.byte	0
	.byte	0
.Lcst_end18:
	.byte	127
	.byte	0
	.byte	0
	.byte	0
	.byte	1
	.byte	125
	.byte	1
	.byte	0
	.p2align	2, 0x0
	.long	0
.Lttbase16:
	.byte	0
	.p2align	2, 0x0

	.section	".text._ZN4core3ops8function6FnOnce40call_once$u7b$$u7b$vtable.shim$u7d$$u7d$17h401b9e654a329820E","ax",@progbits
	.p2align	4
	.type	_ZN4core3ops8function6FnOnce40call_once$u7b$$u7b$vtable.shim$u7d$$u7d$17h401b9e654a329820E,@function
_ZN4core3ops8function6FnOnce40call_once$u7b$$u7b$vtable.shim$u7d$$u7d$17h401b9e654a329820E:
.Lfunc_begin19:
	.cfi_startproc
	.cfi_personality 155, DW.ref.rust_eh_personality
	.cfi_lsda 27, .Lexception19
	pushq	%rbp
	.cfi_def_cfa_offset 16
	pushq	%r15
	.cfi_def_cfa_offset 24
	pushq	%r14
	.cfi_def_cfa_offset 32
	pushq	%r13
	.cfi_def_cfa_offset 40
	pushq	%r12
	.cfi_def_cfa_offset 48
	pushq	%rbx
	.cfi_def_cfa_offset 56
	subq	$120, %rsp
	.cfi_def_cfa_offset 176
	.cfi_offset %rbx, -56
	.cfi_offset %r12, -48
	.cfi_offset %r13, -40
	.cfi_offset %r14, -32
	.cfi_offset %r15, -24
	.cfi_offset %rbp, -16
	movq	%rdi, %rbx
	movq	32(%rdi), %rdi
	lock		incq	(%rdi)
	jle	.LBB42_7
	leaq	32(%rbx), %r14
	movb	$1, %bpl
.Ltmp329:
	movq	%r14, 32(%rsp)
	callq	*_ZN3std6thread7current11set_current17h0c95618ac72d48f7E@GOTPCREL(%rip)
.Ltmp330:
	testq	%rax, %rax
	jne	.LBB42_3
.Ltmp340:
	movq	%r14, %rdi
	callq	*_ZN3std6thread6Thread5cname17hc19ac5f2c85cd3d5E@GOTPCREL(%rip)
.Ltmp341:
	testq	%rax, %rax
	je	.LBB42_21
.Ltmp342:
	movq	%rax, %rdi
	movq	%rdx, %rsi
	callq	*_ZN3std3sys3pal4unix6thread6Thread8set_name17hbac6c688d7170644E@GOTPCREL(%rip)
.Ltmp343:
.LBB42_21:
	movabsq	$-9223372036854775808, %r14
	movq	48(%rbx), %r15
	movq	(%rbx), %rax
	movq	24(%rbx), %rcx
	movq	%rax, 72(%rsp)
	movups	8(%rbx), %xmm0
	movups	%xmm0, 80(%rsp)
	movq	%rcx, 96(%rsp)
	movq	%r15, 104(%rsp)
.Ltmp344:
	leaq	72(%rsp), %rdi
	callq	_ZN3std3sys9backtrace28__rust_begin_short_backtrace17ha1d0caad70c34cf0E
.Ltmp345:
.Ltmp346:
	leaq	48(%rsp), %rdi
	movq	%r15, %rsi
	callq	_ZN3std3sys9backtrace28__rust_begin_short_backtrace17h6468f14b3a9a33faE
.Ltmp347:
	movq	48(%rsp), %r15
	movq	56(%rsp), %r13
	movq	64(%rsp), %r12
.LBB42_26:
	movq	40(%rbx), %rbp
	movq	24(%rbp), %rsi
	leaq	1(%r14), %rax
	cmpq	%rax, %rsi
	je	.LBB42_31
	cmpq	%r14, %rsi
	jne	.LBB42_28
	movq	32(%rbp), %rax
	movq	%rax, 24(%rsp)
	movq	40(%rbp), %r14
	movq	(%r14), %rax
	testq	%rax, %rax
	je	.LBB42_37
.Ltmp352:
	movq	24(%rsp), %rdi
	callq	*%rax
.Ltmp353:
.LBB42_37:
	movq	24(%rsp), %rdi
	movq	8(%r14), %rsi
	testq	%rsi, %rsi
	je	.LBB42_31
	movq	16(%r14), %rdx
	jmp	.LBB42_30
.LBB42_28:
	testq	%rsi, %rsi
	je	.LBB42_31
	movq	32(%rbp), %rdi
	movl	$1, %edx
.LBB42_30:
	callq	*_RNvCsb3o7Y5DtQ0O_7___rustc14___rust_dealloc@GOTPCREL(%rip)
.LBB42_31:
	movq	%r15, 24(%rbp)
	movq	%r13, 32(%rbp)
	movq	%r12, 40(%rbp)
	movq	40(%rbx), %rax
	movq	%rax, 40(%rsp)
	lock		decq	(%rax)
	movq	32(%rsp), %r14
	jne	.LBB42_33
	#MEMBARRIER
	xorl	%ebp, %ebp
.Ltmp355:
	leaq	40(%rsp), %rdi
	callq	_ZN5alloc4sync16Arc$LT$T$C$A$GT$9drop_slow17h7884c885dba4b3c3E
.Ltmp356:
.LBB42_33:
	movq	(%r14), %rax
	lock		decq	(%rax)
	jne	.LBB42_45
	#MEMBARRIER
	movq	%r14, %rdi
	addq	$120, %rsp
	.cfi_def_cfa_offset 56
	popq	%rbx
	.cfi_def_cfa_offset 48
	popq	%r12
	.cfi_def_cfa_offset 40
	popq	%r13
	.cfi_def_cfa_offset 32
	popq	%r14
	.cfi_def_cfa_offset 24
	popq	%r15
	.cfi_def_cfa_offset 16
	popq	%rbp
	.cfi_def_cfa_offset 8
	jmpq	*_ZN5alloc4sync16Arc$LT$T$C$A$GT$9drop_slow17h0cfdd8536c45d5f7E@GOTPCREL(%rip)
.LBB42_45:
	.cfi_def_cfa_offset 176
	addq	$120, %rsp
	.cfi_def_cfa_offset 56
	popq	%rbx
	.cfi_def_cfa_offset 48
	popq	%r12
	.cfi_def_cfa_offset 40
	popq	%r13
	.cfi_def_cfa_offset 32
	popq	%r14
	.cfi_def_cfa_offset 24
	popq	%r15
	.cfi_def_cfa_offset 16
	popq	%rbp
	.cfi_def_cfa_offset 8
	retq
.LBB42_3:
	.cfi_def_cfa_offset 176
	movq	%rax, %r14
	movq	%rax, 40(%rsp)
	leaq	.Lanon.94be9b806268416248345155c2a8fe89.61(%rip), %rax
	movq	%rax, 72(%rsp)
	movq	$1, 80(%rsp)
	movq	$8, 88(%rsp)
	xorps	%xmm0, %xmm0
	movups	%xmm0, 96(%rsp)
.Ltmp331:
	leaq	15(%rsp), %rdi
	leaq	72(%rsp), %rsi
	callq	_ZN3std2io5Write9write_fmt17h07c47c27ddc1f0fdE
.Ltmp332:
	movq	%rax, 48(%rsp)
	testq	%rax, %rax
	je	.LBB42_6
.Ltmp333:
	leaq	48(%rsp), %rdi
	callq	_ZN4core3ptr42drop_in_place$LT$std..io..error..Error$GT$17hb5a2048f539dab14E
.Ltmp334:
.LBB42_6:
.Ltmp335:
	callq	*_ZN3std7process5abort17h06455ad7a7c4a35bE@GOTPCREL(%rip)
.Ltmp336:
.LBB42_7:
	ud2
.LBB42_39:
.Ltmp354:
	movq	24(%rsp), %rdi
	movq	%rax, 16(%rsp)
	movq	8(%r14), %rsi
	testq	%rsi, %rsi
	je	.LBB42_41
	movq	16(%r14), %rdx
	callq	*_RNvCsb3o7Y5DtQ0O_7___rustc14___rust_dealloc@GOTPCREL(%rip)
.LBB42_41:
	movq	%r15, 24(%rbp)
	movq	%r13, 32(%rbp)
	movq	%r12, 40(%rbp)
	movb	$1, %bpl
	xorl	%r14d, %r14d
	jmp	.LBB42_9
.LBB42_14:
.Ltmp337:
	movq	%rax, 16(%rsp)
	lock		decq	(%r14)
	movb	$1, %bpl
	jne	.LBB42_15
	#MEMBARRIER
.Ltmp338:
	leaq	40(%rsp), %rdi
	callq	*_ZN5alloc4sync16Arc$LT$T$C$A$GT$9drop_slow17h0cfdd8536c45d5f7E@GOTPCREL(%rip)
.Ltmp339:
	movb	$1, %r14b
	jmp	.LBB42_9
.LBB42_15:
	movb	$1, %r14b
	jmp	.LBB42_9
.LBB42_24:
.Ltmp348:
.Ltmp349:
	movq	%rax, %rdi
	callq	*_ZN3std9panicking12catch_unwind7cleanup17h74caa9c2ada56165E@GOTPCREL(%rip)
.Ltmp350:
	movq	%rax, %r13
	movq	%rdx, %r12
	movq	%r14, %r15
	jmp	.LBB42_26
.LBB42_46:
.Ltmp351:
	callq	*_ZN4core9panicking19panic_cannot_unwind17hf975c85fc7bfab05E@GOTPCREL(%rip)
.LBB42_8:
.Ltmp357:
	movq	%rax, 16(%rsp)
	movl	%ebp, %r14d
.LBB42_9:
	movq	32(%rsp), %rax
	movq	(%rax), %rax
	lock		decq	(%rax)
	jne	.LBB42_11
	#MEMBARRIER
.Ltmp358:
	movq	32(%rsp), %rdi
	callq	*_ZN5alloc4sync16Arc$LT$T$C$A$GT$9drop_slow17h0cfdd8536c45d5f7E@GOTPCREL(%rip)
.Ltmp359:
.LBB42_11:
	testb	%r14b, %r14b
	je	.LBB42_12
.Ltmp360:
	movq	%rbx, %rdi
	callq	_ZN4core3ptr60drop_in_place$LT$std..thread..spawnhook..ChildSpawnHooks$GT$17h04e3f0c35efce032E
.Ltmp361:
.LBB42_12:
	testb	%bpl, %bpl
	je	.LBB42_13
	movq	40(%rbx), %rax
	lock		decq	(%rax)
	jne	.LBB42_13
	addq	$40, %rbx
	#MEMBARRIER
.Ltmp362:
	movq	%rbx, %rdi
	callq	_ZN5alloc4sync16Arc$LT$T$C$A$GT$9drop_slow17h7884c885dba4b3c3E
.Ltmp363:
.LBB42_13:
	movq	16(%rsp), %rdi
	callq	_Unwind_Resume@PLT
.LBB42_17:
.Ltmp364:
	callq	*_ZN4core9panicking16panic_in_cleanup17h6f48b941993644b5E@GOTPCREL(%rip)
.Lfunc_end42:
	.size	_ZN4core3ops8function6FnOnce40call_once$u7b$$u7b$vtable.shim$u7d$$u7d$17h401b9e654a329820E, .Lfunc_end42-_ZN4core3ops8function6FnOnce40call_once$u7b$$u7b$vtable.shim$u7d$$u7d$17h401b9e654a329820E
	.cfi_endproc
	.section	".gcc_except_table._ZN4core3ops8function6FnOnce40call_once$u7b$$u7b$vtable.shim$u7d$$u7d$17h401b9e654a329820E","a",@progbits
	.p2align	2, 0x0
GCC_except_table42:
.Lexception19:
	.byte	255
	.byte	155
	.uleb128 .Lttbase17-.Lttbaseref17
.Lttbaseref17:
	.byte	1
	.uleb128 .Lcst_end19-.Lcst_begin19
.Lcst_begin19:
	.uleb128 .Ltmp329-.Lfunc_begin19
	.uleb128 .Ltmp343-.Ltmp329
	.uleb128 .Ltmp357-.Lfunc_begin19
	.byte	0
	.uleb128 .Ltmp344-.Lfunc_begin19
	.uleb128 .Ltmp347-.Ltmp344
	.uleb128 .Ltmp348-.Lfunc_begin19
	.byte	3
	.uleb128 .Ltmp352-.Lfunc_begin19
	.uleb128 .Ltmp353-.Ltmp352
	.uleb128 .Ltmp354-.Lfunc_begin19
	.byte	0
	.uleb128 .Ltmp355-.Lfunc_begin19
	.uleb128 .Ltmp356-.Ltmp355
	.uleb128 .Ltmp357-.Lfunc_begin19
	.byte	0
	.uleb128 .Ltmp356-.Lfunc_begin19
	.uleb128 .Ltmp331-.Ltmp356
	.byte	0
	.byte	0
	.uleb128 .Ltmp331-.Lfunc_begin19
	.uleb128 .Ltmp336-.Ltmp331
	.uleb128 .Ltmp337-.Lfunc_begin19
	.byte	0
	.uleb128 .Ltmp338-.Lfunc_begin19
	.uleb128 .Ltmp339-.Ltmp338
	.uleb128 .Ltmp364-.Lfunc_begin19
	.byte	1
	.uleb128 .Ltmp349-.Lfunc_begin19
	.uleb128 .Ltmp350-.Ltmp349
	.uleb128 .Ltmp351-.Lfunc_begin19
	.byte	1
	.uleb128 .Ltmp358-.Lfunc_begin19
	.uleb128 .Ltmp363-.Ltmp358
	.uleb128 .Ltmp364-.Lfunc_begin19
	.byte	1
	.uleb128 .Ltmp363-.Lfunc_begin19
	.uleb128 .Lfunc_end42-.Ltmp363
	.byte	0
	.byte	0
.Lcst_end19:
	.byte	127
	.byte	0
	.byte	1
	.byte	0
	.p2align	2, 0x0
	.long	0
.Lttbase17:
	.byte	0
	.p2align	2, 0x0

	.section	".text._ZN4core3ops8function6FnOnce40call_once$u7b$$u7b$vtable.shim$u7d$$u7d$17h4a9b29d261688fd6E","ax",@progbits
	.p2align	4
	.type	_ZN4core3ops8function6FnOnce40call_once$u7b$$u7b$vtable.shim$u7d$$u7d$17h4a9b29d261688fd6E,@function
_ZN4core3ops8function6FnOnce40call_once$u7b$$u7b$vtable.shim$u7d$$u7d$17h4a9b29d261688fd6E:
	.cfi_startproc
	pushq	%r15
	.cfi_def_cfa_offset 16
	pushq	%r14
	.cfi_def_cfa_offset 24
	pushq	%r13
	.cfi_def_cfa_offset 32
	pushq	%r12
	.cfi_def_cfa_offset 40
	pushq	%rbx
	.cfi_def_cfa_offset 48
	subq	$32, %rsp
	.cfi_def_cfa_offset 80
	.cfi_offset %rbx, -48
	.cfi_offset %r12, -40
	.cfi_offset %r13, -32
	.cfi_offset %r14, -24
	.cfi_offset %r15, -16
	movq	(%rdi), %rax
	movq	(%rax), %r13
	movq	$0, (%rax)
	testq	%r13, %r13
	je	.LBB43_8
	leaq	12(%rsp), %rsi
	movl	$1000, %edi
	movl	$20, %edx
	callq	*_ZN4core3fmt3num3imp23_$LT$impl$u20$usize$GT$4_fmt17hfd7e763b9b703308E@GOTPCREL(%rip)
	movq	%rdx, %rbx
	testq	%rdx, %rdx
	js	.LBB43_2
	movq	%rax, %r14
	je	.LBB43_4
	callq	*_RNvCsb3o7Y5DtQ0O_7___rustc35___rust_no_alloc_shim_is_unstable_v2@GOTPCREL(%rip)
	movl	$1, %r15d
	movl	$1, %esi
	movq	%rbx, %rdi
	callq	*_RNvCsb3o7Y5DtQ0O_7___rustc12___rust_alloc@GOTPCREL(%rip)
	movq	%rax, %r12
	testq	%rax, %rax
	jne	.LBB43_5
	jmp	.LBB43_7
.LBB43_4:
	movl	$1, %r12d
.LBB43_5:
	movq	%r12, %rdi
	movq	%r14, %rsi
	movq	%rbx, %rdx
	callq	*memcpy@GOTPCREL(%rip)
	movq	%rbx, (%r13)
	movq	%r12, 8(%r13)
	movq	%rbx, 16(%r13)
	addq	$32, %rsp
	.cfi_def_cfa_offset 48
	popq	%rbx
	.cfi_def_cfa_offset 40
	popq	%r12
	.cfi_def_cfa_offset 32
	popq	%r13
	.cfi_def_cfa_offset 24
	popq	%r14
	.cfi_def_cfa_offset 16
	popq	%r15
	.cfi_def_cfa_offset 8
	retq
.LBB43_8:
	.cfi_def_cfa_offset 80
	leaq	.Lanon.94be9b806268416248345155c2a8fe89.53(%rip), %rdi
	callq	*_ZN4core6option13unwrap_failed17h5189ee9f1cf5c131E@GOTPCREL(%rip)
.LBB43_2:
	xorl	%r15d, %r15d
.LBB43_7:
	leaq	.Lanon.94be9b806268416248345155c2a8fe89.113(%rip), %rdx
	movq	%r15, %rdi
	movq	%rbx, %rsi
	callq	*_ZN5alloc7raw_vec12handle_error17hc389833aee8d6f48E@GOTPCREL(%rip)
.Lfunc_end43:
	.size	_ZN4core3ops8function6FnOnce40call_once$u7b$$u7b$vtable.shim$u7d$$u7d$17h4a9b29d261688fd6E, .Lfunc_end43-_ZN4core3ops8function6FnOnce40call_once$u7b$$u7b$vtable.shim$u7d$$u7d$17h4a9b29d261688fd6E
	.cfi_endproc

	.section	".text._ZN4core3ops8function6FnOnce40call_once$u7b$$u7b$vtable.shim$u7d$$u7d$17ha685a33dd593a416E","ax",@progbits
	.p2align	4
	.type	_ZN4core3ops8function6FnOnce40call_once$u7b$$u7b$vtable.shim$u7d$$u7d$17ha685a33dd593a416E,@function
_ZN4core3ops8function6FnOnce40call_once$u7b$$u7b$vtable.shim$u7d$$u7d$17ha685a33dd593a416E:
	.cfi_startproc
	pushq	%r15
	.cfi_def_cfa_offset 16
	pushq	%r14
	.cfi_def_cfa_offset 24
	pushq	%r13
	.cfi_def_cfa_offset 32
	pushq	%r12
	.cfi_def_cfa_offset 40
	pushq	%rbx
	.cfi_def_cfa_offset 48
	subq	$32, %rsp
	.cfi_def_cfa_offset 80
	.cfi_offset %rbx, -48
	.cfi_offset %r12, -40
	.cfi_offset %r13, -32
	.cfi_offset %r14, -24
	.cfi_offset %r15, -16
	movq	(%rdi), %rax
	movq	(%rax), %r13
	movq	$0, (%rax)
	testq	%r13, %r13
	je	.LBB44_8
	leaq	12(%rsp), %rsi
	movl	$4, %edi
	movl	$20, %edx
	callq	*_ZN4core3fmt3num3imp23_$LT$impl$u20$usize$GT$4_fmt17hfd7e763b9b703308E@GOTPCREL(%rip)
	movq	%rdx, %rbx
	testq	%rdx, %rdx
	js	.LBB44_2
	movq	%rax, %r14
	je	.LBB44_4
	callq	*_RNvCsb3o7Y5DtQ0O_7___rustc35___rust_no_alloc_shim_is_unstable_v2@GOTPCREL(%rip)
	movl	$1, %r15d
	movl	$1, %esi
	movq	%rbx, %rdi
	callq	*_RNvCsb3o7Y5DtQ0O_7___rustc12___rust_alloc@GOTPCREL(%rip)
	movq	%rax, %r12
	testq	%rax, %rax
	jne	.LBB44_5
	jmp	.LBB44_7
.LBB44_4:
	movl	$1, %r12d
.LBB44_5:
	movq	%r12, %rdi
	movq	%r14, %rsi
	movq	%rbx, %rdx
	callq	*memcpy@GOTPCREL(%rip)
	movq	%rbx, (%r13)
	movq	%r12, 8(%r13)
	movq	%rbx, 16(%r13)
	addq	$32, %rsp
	.cfi_def_cfa_offset 48
	popq	%rbx
	.cfi_def_cfa_offset 40
	popq	%r12
	.cfi_def_cfa_offset 32
	popq	%r13
	.cfi_def_cfa_offset 24
	popq	%r14
	.cfi_def_cfa_offset 16
	popq	%r15
	.cfi_def_cfa_offset 8
	retq
.LBB44_8:
	.cfi_def_cfa_offset 80
	leaq	.Lanon.94be9b806268416248345155c2a8fe89.53(%rip), %rdi
	callq	*_ZN4core6option13unwrap_failed17h5189ee9f1cf5c131E@GOTPCREL(%rip)
.LBB44_2:
	xorl	%r15d, %r15d
.LBB44_7:
	leaq	.Lanon.94be9b806268416248345155c2a8fe89.113(%rip), %rdx
	movq	%r15, %rdi
	movq	%rbx, %rsi
	callq	*_ZN5alloc7raw_vec12handle_error17hc389833aee8d6f48E@GOTPCREL(%rip)
.Lfunc_end44:
	.size	_ZN4core3ops8function6FnOnce40call_once$u7b$$u7b$vtable.shim$u7d$$u7d$17ha685a33dd593a416E, .Lfunc_end44-_ZN4core3ops8function6FnOnce40call_once$u7b$$u7b$vtable.shim$u7d$$u7d$17ha685a33dd593a416E
	.cfi_endproc

	.section	".text._ZN4core3ops8function6FnOnce40call_once$u7b$$u7b$vtable.shim$u7d$$u7d$17hbaa294867e043e23E","ax",@progbits
	.p2align	4
	.type	_ZN4core3ops8function6FnOnce40call_once$u7b$$u7b$vtable.shim$u7d$$u7d$17hbaa294867e043e23E,@function
_ZN4core3ops8function6FnOnce40call_once$u7b$$u7b$vtable.shim$u7d$$u7d$17hbaa294867e043e23E:
	.cfi_startproc
	pushq	%rax
	.cfi_def_cfa_offset 16
	movq	(%rdi), %rax
	movq	%rax, (%rsp)
	movq	%rsp, %rdi
	callq	_ZN3std2rt10lang_start28_$u7b$$u7b$closure$u7d$$u7d$17hd751e174e8001f1cE
	popq	%rcx
	.cfi_def_cfa_offset 8
	retq
.Lfunc_end45:
	.size	_ZN4core3ops8function6FnOnce40call_once$u7b$$u7b$vtable.shim$u7d$$u7d$17hbaa294867e043e23E, .Lfunc_end45-_ZN4core3ops8function6FnOnce40call_once$u7b$$u7b$vtable.shim$u7d$$u7d$17hbaa294867e043e23E
	.cfi_endproc

	.section	".text._ZN4core3ptr100drop_in_place$LT$alloc..boxed..Box$LT$clap_builder..parser..matches..arg_matches..SubCommand$GT$$GT$17hf23b0001469979c6E","ax",@progbits
	.p2align	4
	.type	_ZN4core3ptr100drop_in_place$LT$alloc..boxed..Box$LT$clap_builder..parser..matches..arg_matches..SubCommand$GT$$GT$17hf23b0001469979c6E,@function
_ZN4core3ptr100drop_in_place$LT$alloc..boxed..Box$LT$clap_builder..parser..matches..arg_matches..SubCommand$GT$$GT$17hf23b0001469979c6E:
.Lfunc_begin20:
	.cfi_startproc
	.cfi_personality 155, DW.ref.rust_eh_personality
	.cfi_lsda 27, .Lexception20
	pushq	%r14
	.cfi_def_cfa_offset 16
	pushq	%rbx
	.cfi_def_cfa_offset 24
	pushq	%rax
	.cfi_def_cfa_offset 32
	.cfi_offset %rbx, -24
	.cfi_offset %r14, -16
	movq	(%rdi), %rbx
	movq	(%rbx), %rsi
	testq	%rsi, %rsi
	je	.LBB46_2
	movq	8(%rbx), %rdi
	movl	$1, %edx
	callq	*_RNvCsb3o7Y5DtQ0O_7___rustc14___rust_dealloc@GOTPCREL(%rip)
.LBB46_2:
	leaq	24(%rbx), %rdi
.Ltmp365:
	callq	_ZN4core3ptr75drop_in_place$LT$clap_builder..parser..matches..arg_matches..ArgMatches$GT$17hdaeda27c9bb3c651E
.Ltmp366:
	movl	$80, %esi
	movl	$8, %edx
	movq	%rbx, %rdi
	addq	$8, %rsp
	.cfi_def_cfa_offset 24
	popq	%rbx
	.cfi_def_cfa_offset 16
	popq	%r14
	.cfi_def_cfa_offset 8
	jmpq	*_RNvCsb3o7Y5DtQ0O_7___rustc14___rust_dealloc@GOTPCREL(%rip)
.LBB46_4:
	.cfi_def_cfa_offset 32
.Ltmp367:
	movq	%rax, %r14
	movl	$80, %esi
	movl	$8, %edx
	movq	%rbx, %rdi
	callq	*_RNvCsb3o7Y5DtQ0O_7___rustc14___rust_dealloc@GOTPCREL(%rip)
	movq	%r14, %rdi
	callq	_Unwind_Resume@PLT
.Lfunc_end46:
	.size	_ZN4core3ptr100drop_in_place$LT$alloc..boxed..Box$LT$clap_builder..parser..matches..arg_matches..SubCommand$GT$$GT$17hf23b0001469979c6E, .Lfunc_end46-_ZN4core3ptr100drop_in_place$LT$alloc..boxed..Box$LT$clap_builder..parser..matches..arg_matches..SubCommand$GT$$GT$17hf23b0001469979c6E
	.cfi_endproc
	.section	".gcc_except_table._ZN4core3ptr100drop_in_place$LT$alloc..boxed..Box$LT$clap_builder..parser..matches..arg_matches..SubCommand$GT$$GT$17hf23b0001469979c6E","a",@progbits
	.p2align	2, 0x0
GCC_except_table46:
.Lexception20:
	.byte	255
	.byte	255
	.byte	1
	.uleb128 .Lcst_end20-.Lcst_begin20
.Lcst_begin20:
	.uleb128 .Ltmp365-.Lfunc_begin20
	.uleb128 .Ltmp366-.Ltmp365
	.uleb128 .Ltmp367-.Lfunc_begin20
	.byte	0
	.uleb128 .Ltmp366-.Lfunc_begin20
	.uleb128 .Lfunc_end46-.Ltmp366
	.byte	0
	.byte	0
.Lcst_end20:
	.p2align	2, 0x0

	.section	".text._ZN4core3ptr106drop_in_place$LT$alloc..vec..Vec$LT$alloc..vec..Vec$LT$clap_builder..util..any_value..AnyValue$GT$$GT$$GT$17hc03c497e31a29272E","ax",@progbits
	.p2align	4
	.type	_ZN4core3ptr106drop_in_place$LT$alloc..vec..Vec$LT$alloc..vec..Vec$LT$clap_builder..util..any_value..AnyValue$GT$$GT$$GT$17hc03c497e31a29272E,@function
_ZN4core3ptr106drop_in_place$LT$alloc..vec..Vec$LT$alloc..vec..Vec$LT$clap_builder..util..any_value..AnyValue$GT$$GT$$GT$17hc03c497e31a29272E:
.Lfunc_begin21:
	.cfi_startproc
	.cfi_personality 155, DW.ref.rust_eh_personality
	.cfi_lsda 27, .Lexception21
	pushq	%rbp
	.cfi_def_cfa_offset 16
	pushq	%r15
	.cfi_def_cfa_offset 24
	pushq	%r14
	.cfi_def_cfa_offset 32
	pushq	%r13
	.cfi_def_cfa_offset 40
	pushq	%r12
	.cfi_def_cfa_offset 48
	pushq	%rbx
	.cfi_def_cfa_offset 56
	pushq	%rax
	.cfi_def_cfa_offset 64
	.cfi_offset %rbx, -56
	.cfi_offset %r12, -48
	.cfi_offset %r13, -40
	.cfi_offset %r14, -32
	.cfi_offset %r15, -24
	.cfi_offset %rbp, -16
	movq	%rdi, %r14
	movq	8(%rdi), %rbx
	movq	16(%rdi), %r13
	incq	%r13
	movq	%rbx, %rdi
	.p2align	4
.LBB47_1:
	cmpq	$1, %r13
	je	.LBB47_10
	leaq	24(%rdi), %r12
	decq	%r13
.Ltmp368:
	callq	_ZN4core3ptr83drop_in_place$LT$alloc..vec..Vec$LT$clap_builder..util..any_value..AnyValue$GT$$GT$17hdc4d90d2f2db2289E
.Ltmp369:
	movq	%r12, %rdi
	jmp	.LBB47_1
.LBB47_10:
	movq	(%r14), %rax
	testq	%rax, %rax
	je	.LBB47_11
	shlq	$3, %rax
	leaq	(%rax,%rax,2), %rsi
	movl	$8, %edx
	movq	%rbx, %rdi
	addq	$8, %rsp
	.cfi_def_cfa_offset 56
	popq	%rbx
	.cfi_def_cfa_offset 48
	popq	%r12
	.cfi_def_cfa_offset 40
	popq	%r13
	.cfi_def_cfa_offset 32
	popq	%r14
	.cfi_def_cfa_offset 24
	popq	%r15
	.cfi_def_cfa_offset 16
	popq	%rbp
	.cfi_def_cfa_offset 8
	jmpq	*_RNvCsb3o7Y5DtQ0O_7___rustc14___rust_dealloc@GOTPCREL(%rip)
.LBB47_11:
	.cfi_def_cfa_offset 64
	addq	$8, %rsp
	.cfi_def_cfa_offset 56
	popq	%rbx
	.cfi_def_cfa_offset 48
	popq	%r12
	.cfi_def_cfa_offset 40
	popq	%r13
	.cfi_def_cfa_offset 32
	popq	%r14
	.cfi_def_cfa_offset 24
	popq	%r15
	.cfi_def_cfa_offset 16
	popq	%rbp
	.cfi_def_cfa_offset 8
	retq
.LBB47_3:
	.cfi_def_cfa_offset 64
.Ltmp370:
	movq	%rax, %r15
	.p2align	4
.LBB47_4:
	decq	%r13
	je	.LBB47_7
.Ltmp371:
	leaq	24(%r12), %rbp
	movq	%r12, %rdi
	callq	_ZN4core3ptr83drop_in_place$LT$alloc..vec..Vec$LT$clap_builder..util..any_value..AnyValue$GT$$GT$17hdc4d90d2f2db2289E
.Ltmp372:
	movq	%rbp, %r12
	jmp	.LBB47_4
.LBB47_7:
	movq	(%r14), %rax
	testq	%rax, %rax
	je	.LBB47_9
	shlq	$3, %rax
	leaq	(%rax,%rax,2), %rsi
	movl	$8, %edx
	movq	%rbx, %rdi
	callq	*_RNvCsb3o7Y5DtQ0O_7___rustc14___rust_dealloc@GOTPCREL(%rip)
.LBB47_9:
	movq	%r15, %rdi
	callq	_Unwind_Resume@PLT
.LBB47_6:
.Ltmp373:
	callq	*_ZN4core9panicking16panic_in_cleanup17h6f48b941993644b5E@GOTPCREL(%rip)
.Lfunc_end47:
	.size	_ZN4core3ptr106drop_in_place$LT$alloc..vec..Vec$LT$alloc..vec..Vec$LT$clap_builder..util..any_value..AnyValue$GT$$GT$$GT$17hc03c497e31a29272E, .Lfunc_end47-_ZN4core3ptr106drop_in_place$LT$alloc..vec..Vec$LT$alloc..vec..Vec$LT$clap_builder..util..any_value..AnyValue$GT$$GT$$GT$17hc03c497e31a29272E
	.cfi_endproc
	.section	".gcc_except_table._ZN4core3ptr106drop_in_place$LT$alloc..vec..Vec$LT$alloc..vec..Vec$LT$clap_builder..util..any_value..AnyValue$GT$$GT$$GT$17hc03c497e31a29272E","a",@progbits
	.p2align	2, 0x0
GCC_except_table47:
.Lexception21:
	.byte	255
	.byte	155
	.uleb128 .Lttbase18-.Lttbaseref18
.Lttbaseref18:
	.byte	1
	.uleb128 .Lcst_end21-.Lcst_begin21
.Lcst_begin21:
	.uleb128 .Ltmp368-.Lfunc_begin21
	.uleb128 .Ltmp369-.Ltmp368
	.uleb128 .Ltmp370-.Lfunc_begin21
	.byte	0
	.uleb128 .Ltmp371-.Lfunc_begin21
	.uleb128 .Ltmp372-.Ltmp371
	.uleb128 .Ltmp373-.Lfunc_begin21
	.byte	1
	.uleb128 .Ltmp372-.Lfunc_begin21
	.uleb128 .Lfunc_end47-.Ltmp372
	.byte	0
	.byte	0
.Lcst_end21:
	.byte	127
	.byte	0
	.p2align	2, 0x0
.Lttbase18:
	.byte	0
	.p2align	2, 0x0

	.section	".text._ZN4core3ptr106drop_in_place$LT$std..sync..poison..PoisonError$LT$std..sync..poison..mutex..MutexGuard$LT$u64$GT$$GT$$GT$17hdabc1feebe841b68E","ax",@progbits
	.p2align	4
	.type	_ZN4core3ptr106drop_in_place$LT$std..sync..poison..PoisonError$LT$std..sync..poison..mutex..MutexGuard$LT$u64$GT$$GT$$GT$17hdabc1feebe841b68E,@function
_ZN4core3ptr106drop_in_place$LT$std..sync..poison..PoisonError$LT$std..sync..poison..mutex..MutexGuard$LT$u64$GT$$GT$$GT$17hdabc1feebe841b68E:
	.cfi_startproc
	pushq	%rbx
	.cfi_def_cfa_offset 16
	.cfi_offset %rbx, -16
	movq	(%rdi), %rbx
	cmpb	$0, 8(%rdi)
	jne	.LBB48_4
	movq	_ZN3std9panicking11panic_count18GLOBAL_PANIC_COUNT17h6b73b4a44f7b7da6E@GOTPCREL(%rip), %rax
	movq	(%rax), %rax
	shlq	%rax
	testq	%rax, %rax
	jne	.LBB48_2
.LBB48_4:
	xorl	%eax, %eax
	xchgl	%eax, (%rbx)
	cmpl	$2, %eax
	je	.LBB48_6
	popq	%rbx
	.cfi_def_cfa_offset 8
	retq
.LBB48_6:
	.cfi_def_cfa_offset 16
	movq	%rbx, %rdi
	popq	%rbx
	.cfi_def_cfa_offset 8
	jmpq	*_ZN3std3sys4sync5mutex5futex5Mutex4wake17h01da496fd8ff9537E@GOTPCREL(%rip)
.LBB48_2:
	.cfi_def_cfa_offset 16
	callq	*_ZN3std9panicking11panic_count17is_zero_slow_path17he616e583ae2cd51bE@GOTPCREL(%rip)
	testb	%al, %al
	jne	.LBB48_4
	movb	$1, 4(%rbx)
	jmp	.LBB48_4
.Lfunc_end48:
	.size	_ZN4core3ptr106drop_in_place$LT$std..sync..poison..PoisonError$LT$std..sync..poison..mutex..MutexGuard$LT$u64$GT$$GT$$GT$17hdabc1feebe841b68E, .Lfunc_end48-_ZN4core3ptr106drop_in_place$LT$std..sync..poison..PoisonError$LT$std..sync..poison..mutex..MutexGuard$LT$u64$GT$$GT$$GT$17hdabc1feebe841b68E
	.cfi_endproc

	.section	".text._ZN4core3ptr107drop_in_place$LT$std..sync..poison..PoisonError$LT$std..sync..poison..mutex..MutexGuard$LT$bool$GT$$GT$$GT$17haa0d2769ce623889E","ax",@progbits
	.p2align	4
	.type	_ZN4core3ptr107drop_in_place$LT$std..sync..poison..PoisonError$LT$std..sync..poison..mutex..MutexGuard$LT$bool$GT$$GT$$GT$17haa0d2769ce623889E,@function
_ZN4core3ptr107drop_in_place$LT$std..sync..poison..PoisonError$LT$std..sync..poison..mutex..MutexGuard$LT$bool$GT$$GT$$GT$17haa0d2769ce623889E:
	.cfi_startproc
	pushq	%rbx
	.cfi_def_cfa_offset 16
	.cfi_offset %rbx, -16
	movq	(%rdi), %rbx
	cmpb	$0, 8(%rdi)
	jne	.LBB49_4
	movq	_ZN3std9panicking11panic_count18GLOBAL_PANIC_COUNT17h6b73b4a44f7b7da6E@GOTPCREL(%rip), %rax
	movq	(%rax), %rax
	shlq	%rax
	testq	%rax, %rax
	jne	.LBB49_2
.LBB49_4:
	xorl	%eax, %eax
	xchgl	%eax, (%rbx)
	cmpl	$2, %eax
	je	.LBB49_6
	popq	%rbx
	.cfi_def_cfa_offset 8
	retq
.LBB49_6:
	.cfi_def_cfa_offset 16
	movq	%rbx, %rdi
	popq	%rbx
	.cfi_def_cfa_offset 8
	jmpq	*_ZN3std3sys4sync5mutex5futex5Mutex4wake17h01da496fd8ff9537E@GOTPCREL(%rip)
.LBB49_2:
	.cfi_def_cfa_offset 16
	callq	*_ZN3std9panicking11panic_count17is_zero_slow_path17he616e583ae2cd51bE@GOTPCREL(%rip)
	testb	%al, %al
	jne	.LBB49_4
	movb	$1, 4(%rbx)
	jmp	.LBB49_4
.Lfunc_end49:
	.size	_ZN4core3ptr107drop_in_place$LT$std..sync..poison..PoisonError$LT$std..sync..poison..mutex..MutexGuard$LT$bool$GT$$GT$$GT$17haa0d2769ce623889E, .Lfunc_end49-_ZN4core3ptr107drop_in_place$LT$std..sync..poison..PoisonError$LT$std..sync..poison..mutex..MutexGuard$LT$bool$GT$$GT$$GT$17haa0d2769ce623889E
	.cfi_endproc

	.section	".text._ZN4core3ptr112drop_in_place$LT$alloc..vec..into_iter..IntoIter$LT$std..thread..JoinHandle$LT$alloc..string..String$GT$$GT$$GT$17h992b8d7b949024cbE","ax",@progbits
	.p2align	4
	.type	_ZN4core3ptr112drop_in_place$LT$alloc..vec..into_iter..IntoIter$LT$std..thread..JoinHandle$LT$alloc..string..String$GT$$GT$$GT$17h992b8d7b949024cbE,@function
_ZN4core3ptr112drop_in_place$LT$alloc..vec..into_iter..IntoIter$LT$std..thread..JoinHandle$LT$alloc..string..String$GT$$GT$$GT$17h992b8d7b949024cbE:
.Lfunc_begin22:
	.cfi_startproc
	.cfi_personality 155, DW.ref.rust_eh_personality
	.cfi_lsda 27, .Lexception22
	pushq	%r15
	.cfi_def_cfa_offset 16
	pushq	%r14
	.cfi_def_cfa_offset 24
	pushq	%r13
	.cfi_def_cfa_offset 32
	pushq	%r12
	.cfi_def_cfa_offset 40
	pushq	%rbx
	.cfi_def_cfa_offset 48
	.cfi_offset %rbx, -48
	.cfi_offset %r12, -40
	.cfi_offset %r13, -32
	.cfi_offset %r14, -24
	.cfi_offset %r15, -16
	movq	%rdi, %rbx
	movq	8(%rdi), %rdi
	movq	24(%rbx), %rax
	subq	%rdi, %rax
	shrq	$3, %rax
	movabsq	$-6148914691236517205, %r12
	imulq	%rax, %r12
	incq	%r12
	.p2align	4
.LBB50_1:
	cmpq	$1, %r12
	je	.LBB50_10
	leaq	24(%rdi), %r15
	decq	%r12
.Ltmp374:
	callq	_ZN4core3ptr73drop_in_place$LT$std..thread..JoinHandle$LT$alloc..string..String$GT$$GT$17hf1dcd4d382775a2fE
.Ltmp375:
	movq	%r15, %rdi
	jmp	.LBB50_1
.LBB50_10:
	movq	16(%rbx), %rax
	testq	%rax, %rax
	je	.LBB50_11
	movq	(%rbx), %rdi
	shlq	$3, %rax
	leaq	(%rax,%rax,2), %rsi
	movl	$8, %edx
	popq	%rbx
	.cfi_def_cfa_offset 40
	popq	%r12
	.cfi_def_cfa_offset 32
	popq	%r13
	.cfi_def_cfa_offset 24
	popq	%r14
	.cfi_def_cfa_offset 16
	popq	%r15
	.cfi_def_cfa_offset 8
	jmpq	*_RNvCsb3o7Y5DtQ0O_7___rustc14___rust_dealloc@GOTPCREL(%rip)
.LBB50_11:
	.cfi_def_cfa_offset 48
	popq	%rbx
	.cfi_def_cfa_offset 40
	popq	%r12
	.cfi_def_cfa_offset 32
	popq	%r13
	.cfi_def_cfa_offset 24
	popq	%r14
	.cfi_def_cfa_offset 16
	popq	%r15
	.cfi_def_cfa_offset 8
	retq
.LBB50_6:
	.cfi_def_cfa_offset 48
.Ltmp376:
	movq	%rax, %r14
	.p2align	4
.LBB50_7:
	decq	%r12
	je	.LBB50_3
.Ltmp377:
	leaq	24(%r15), %r13
	movq	%r15, %rdi
	callq	_ZN4core3ptr73drop_in_place$LT$std..thread..JoinHandle$LT$alloc..string..String$GT$$GT$17hf1dcd4d382775a2fE
.Ltmp378:
	movq	%r13, %r15
	jmp	.LBB50_7
.LBB50_3:
	movq	16(%rbx), %rax
	testq	%rax, %rax
	je	.LBB50_5
	movq	(%rbx), %rdi
	shlq	$3, %rax
	leaq	(%rax,%rax,2), %rsi
	movl	$8, %edx
	callq	*_RNvCsb3o7Y5DtQ0O_7___rustc14___rust_dealloc@GOTPCREL(%rip)
.LBB50_5:
	movq	%r14, %rdi
	callq	_Unwind_Resume@PLT
.LBB50_9:
.Ltmp379:
	callq	*_ZN4core9panicking16panic_in_cleanup17h6f48b941993644b5E@GOTPCREL(%rip)
.Lfunc_end50:
	.size	_ZN4core3ptr112drop_in_place$LT$alloc..vec..into_iter..IntoIter$LT$std..thread..JoinHandle$LT$alloc..string..String$GT$$GT$$GT$17h992b8d7b949024cbE, .Lfunc_end50-_ZN4core3ptr112drop_in_place$LT$alloc..vec..into_iter..IntoIter$LT$std..thread..JoinHandle$LT$alloc..string..String$GT$$GT$$GT$17h992b8d7b949024cbE
	.cfi_endproc
	.section	".gcc_except_table._ZN4core3ptr112drop_in_place$LT$alloc..vec..into_iter..IntoIter$LT$std..thread..JoinHandle$LT$alloc..string..String$GT$$GT$$GT$17h992b8d7b949024cbE","a",@progbits
	.p2align	2, 0x0
GCC_except_table50:
.Lexception22:
	.byte	255
	.byte	155
	.uleb128 .Lttbase19-.Lttbaseref19
.Lttbaseref19:
	.byte	1
	.uleb128 .Lcst_end22-.Lcst_begin22
.Lcst_begin22:
	.uleb128 .Ltmp374-.Lfunc_begin22
	.uleb128 .Ltmp375-.Ltmp374
	.uleb128 .Ltmp376-.Lfunc_begin22
	.byte	0
	.uleb128 .Ltmp377-.Lfunc_begin22
	.uleb128 .Ltmp378-.Ltmp377
	.uleb128 .Ltmp379-.Lfunc_begin22
	.byte	1
	.uleb128 .Ltmp378-.Lfunc_begin22
	.uleb128 .Lfunc_end50-.Ltmp378
	.byte	0
	.byte	0
.Lcst_end22:
	.byte	127
	.byte	0
	.p2align	2, 0x0
.Lttbase19:
	.byte	0
	.p2align	2, 0x0

	.section	".text._ZN4core3ptr118drop_in_place$LT$alloc..boxed..Box$LT$dyn$u20$core..error..Error$u2b$core..marker..Send$u2b$core..marker..Sync$GT$$GT$17hd5ca401a6d1e4c94E","ax",@progbits
	.p2align	4
	.type	_ZN4core3ptr118drop_in_place$LT$alloc..boxed..Box$LT$dyn$u20$core..error..Error$u2b$core..marker..Send$u2b$core..marker..Sync$GT$$GT$17hd5ca401a6d1e4c94E,@function
_ZN4core3ptr118drop_in_place$LT$alloc..boxed..Box$LT$dyn$u20$core..error..Error$u2b$core..marker..Send$u2b$core..marker..Sync$GT$$GT$17hd5ca401a6d1e4c94E:
.Lfunc_begin23:
	.cfi_startproc
	.cfi_personality 155, DW.ref.rust_eh_personality
	.cfi_lsda 27, .Lexception23
	pushq	%r15
	.cfi_def_cfa_offset 16
	pushq	%r14
	.cfi_def_cfa_offset 24
	pushq	%rbx
	.cfi_def_cfa_offset 32
	.cfi_offset %rbx, -32
	.cfi_offset %r14, -24
	.cfi_offset %r15, -16
	movq	%rsi, %r14
	movq	%rdi, %rbx
	movq	(%rsi), %rax
	testq	%rax, %rax
	je	.LBB51_2
.Ltmp380:
	movq	%rbx, %rdi
	callq	*%rax
.Ltmp381:
.LBB51_2:
	movq	8(%r14), %rsi
	testq	%rsi, %rsi
	je	.LBB51_3
	movq	16(%r14), %rdx
	movq	%rbx, %rdi
	popq	%rbx
	.cfi_def_cfa_offset 24
	popq	%r14
	.cfi_def_cfa_offset 16
	popq	%r15
	.cfi_def_cfa_offset 8
	jmpq	*_RNvCsb3o7Y5DtQ0O_7___rustc14___rust_dealloc@GOTPCREL(%rip)
.LBB51_3:
	.cfi_def_cfa_offset 32
	popq	%rbx
	.cfi_def_cfa_offset 24
	popq	%r14
	.cfi_def_cfa_offset 16
	popq	%r15
	.cfi_def_cfa_offset 8
	retq
.LBB51_4:
	.cfi_def_cfa_offset 32
.Ltmp382:
	movq	%rax, %r15
	movq	8(%r14), %rsi
	testq	%rsi, %rsi
	je	.LBB51_6
	movq	16(%r14), %rdx
	movq	%rbx, %rdi
	callq	*_RNvCsb3o7Y5DtQ0O_7___rustc14___rust_dealloc@GOTPCREL(%rip)
.LBB51_6:
	movq	%r15, %rdi
	callq	_Unwind_Resume@PLT
.Lfunc_end51:
	.size	_ZN4core3ptr118drop_in_place$LT$alloc..boxed..Box$LT$dyn$u20$core..error..Error$u2b$core..marker..Send$u2b$core..marker..Sync$GT$$GT$17hd5ca401a6d1e4c94E, .Lfunc_end51-_ZN4core3ptr118drop_in_place$LT$alloc..boxed..Box$LT$dyn$u20$core..error..Error$u2b$core..marker..Send$u2b$core..marker..Sync$GT$$GT$17hd5ca401a6d1e4c94E
	.cfi_endproc
	.section	".gcc_except_table._ZN4core3ptr118drop_in_place$LT$alloc..boxed..Box$LT$dyn$u20$core..error..Error$u2b$core..marker..Send$u2b$core..marker..Sync$GT$$GT$17hd5ca401a6d1e4c94E","a",@progbits
	.p2align	2, 0x0
GCC_except_table51:
.Lexception23:
	.byte	255
	.byte	255
	.byte	1
	.uleb128 .Lcst_end23-.Lcst_begin23
.Lcst_begin23:
	.uleb128 .Ltmp380-.Lfunc_begin23
	.uleb128 .Ltmp381-.Ltmp380
	.uleb128 .Ltmp382-.Lfunc_begin23
	.byte	0
	.uleb128 .Ltmp381-.Lfunc_begin23
	.uleb128 .Lfunc_end51-.Ltmp381
	.byte	0
	.byte	0
.Lcst_end23:
	.p2align	2, 0x0

	.section	".text._ZN4core3ptr123drop_in_place$LT$std..sync..poison..PoisonError$LT$core..option..Option$LT$rust_strengths_demo..ProcessingError$GT$$GT$$GT$17h5f72746d70afde9fE","ax",@progbits
	.p2align	4
	.type	_ZN4core3ptr123drop_in_place$LT$std..sync..poison..PoisonError$LT$core..option..Option$LT$rust_strengths_demo..ProcessingError$GT$$GT$$GT$17h5f72746d70afde9fE,@function
_ZN4core3ptr123drop_in_place$LT$std..sync..poison..PoisonError$LT$core..option..Option$LT$rust_strengths_demo..ProcessingError$GT$$GT$$GT$17h5f72746d70afde9fE:
	.cfi_startproc
	movq	(%rdi), %rcx
	cmpq	$3, %rcx
	jne	.LBB52_1
.LBB52_4:
	retq
.LBB52_1:
	leaq	8(%rdi), %rax
	testq	%rcx, %rcx
	je	.LBB52_3
	cmpl	$1, %ecx
	jne	.LBB52_5
.LBB52_3:
	movq	(%rax), %rsi
	testq	%rsi, %rsi
	je	.LBB52_4
	movq	16(%rdi), %rdi
	movl	$1, %edx
	jmpq	*_RNvCsb3o7Y5DtQ0O_7___rustc14___rust_dealloc@GOTPCREL(%rip)
.LBB52_5:
	movq	%rax, %rdi
	jmp	_ZN4core3ptr42drop_in_place$LT$std..io..error..Error$GT$17hb5a2048f539dab14E
.Lfunc_end52:
	.size	_ZN4core3ptr123drop_in_place$LT$std..sync..poison..PoisonError$LT$core..option..Option$LT$rust_strengths_demo..ProcessingError$GT$$GT$$GT$17h5f72746d70afde9fE, .Lfunc_end52-_ZN4core3ptr123drop_in_place$LT$std..sync..poison..PoisonError$LT$core..option..Option$LT$rust_strengths_demo..ProcessingError$GT$$GT$$GT$17h5f72746d70afde9fE
	.cfi_endproc

	.section	".text._ZN4core3ptr124drop_in_place$LT$alloc..collections..linked_list..Node$LT$alloc..vec..Vec$LT$$LP$alloc..string..String$C$f64$RP$$GT$$GT$$GT$17h25296f20e8d70252E","ax",@progbits
	.p2align	4
	.type	_ZN4core3ptr124drop_in_place$LT$alloc..collections..linked_list..Node$LT$alloc..vec..Vec$LT$$LP$alloc..string..String$C$f64$RP$$GT$$GT$$GT$17h25296f20e8d70252E,@function
_ZN4core3ptr124drop_in_place$LT$alloc..collections..linked_list..Node$LT$alloc..vec..Vec$LT$$LP$alloc..string..String$C$f64$RP$$GT$$GT$$GT$17h25296f20e8d70252E:
	.cfi_startproc
	pushq	%r15
	.cfi_def_cfa_offset 16
	pushq	%r14
	.cfi_def_cfa_offset 24
	pushq	%r13
	.cfi_def_cfa_offset 32
	pushq	%r12
	.cfi_def_cfa_offset 40
	pushq	%rbx
	.cfi_def_cfa_offset 48
	.cfi_offset %rbx, -48
	.cfi_offset %r12, -40
	.cfi_offset %r13, -32
	.cfi_offset %r14, -24
	.cfi_offset %r15, -16
	movq	%rdi, %r14
	movq	8(%rdi), %rbx
	movq	16(%rdi), %r15
	testq	%r15, %r15
	je	.LBB53_5
	leaq	8(%rbx), %r12
	movq	_RNvCsb3o7Y5DtQ0O_7___rustc14___rust_dealloc@GOTPCREL(%rip), %r13
	jmp	.LBB53_2
	.p2align	4
.LBB53_4:
	addq	$32, %r12
	decq	%r15
	je	.LBB53_5
.LBB53_2:
	movq	-8(%r12), %rsi
	testq	%rsi, %rsi
	je	.LBB53_4
	movq	(%r12), %rdi
	movl	$1, %edx
	callq	*%r13
	jmp	.LBB53_4
.LBB53_5:
	movq	(%r14), %rsi
	testq	%rsi, %rsi
	je	.LBB53_6
	shlq	$5, %rsi
	movl	$8, %edx
	movq	%rbx, %rdi
	popq	%rbx
	.cfi_def_cfa_offset 40
	popq	%r12
	.cfi_def_cfa_offset 32
	popq	%r13
	.cfi_def_cfa_offset 24
	popq	%r14
	.cfi_def_cfa_offset 16
	popq	%r15
	.cfi_def_cfa_offset 8
	jmpq	*_RNvCsb3o7Y5DtQ0O_7___rustc14___rust_dealloc@GOTPCREL(%rip)
.LBB53_6:
	.cfi_def_cfa_offset 48
	popq	%rbx
	.cfi_def_cfa_offset 40
	popq	%r12
	.cfi_def_cfa_offset 32
	popq	%r13
	.cfi_def_cfa_offset 24
	popq	%r14
	.cfi_def_cfa_offset 16
	popq	%r15
	.cfi_def_cfa_offset 8
	retq
.Lfunc_end53:
	.size	_ZN4core3ptr124drop_in_place$LT$alloc..collections..linked_list..Node$LT$alloc..vec..Vec$LT$$LP$alloc..string..String$C$f64$RP$$GT$$GT$$GT$17h25296f20e8d70252E, .Lfunc_end53-_ZN4core3ptr124drop_in_place$LT$alloc..collections..linked_list..Node$LT$alloc..vec..Vec$LT$$LP$alloc..string..String$C$f64$RP$$GT$$GT$$GT$17h25296f20e8d70252E
	.cfi_endproc

	.section	".text._ZN4core3ptr124drop_in_place$LT$std..sync..poison..mutex..Mutex$LT$core..option..Option$LT$rust_strengths_demo..ProcessingError$GT$$GT$$GT$17hdd8447b92f4139fdE","ax",@progbits
	.p2align	4
	.type	_ZN4core3ptr124drop_in_place$LT$std..sync..poison..mutex..Mutex$LT$core..option..Option$LT$rust_strengths_demo..ProcessingError$GT$$GT$$GT$17hdd8447b92f4139fdE,@function
_ZN4core3ptr124drop_in_place$LT$std..sync..poison..mutex..Mutex$LT$core..option..Option$LT$rust_strengths_demo..ProcessingError$GT$$GT$$GT$17hdd8447b92f4139fdE:
	.cfi_startproc
	movq	8(%rdi), %rcx
	cmpq	$3, %rcx
	jne	.LBB54_1
.LBB54_4:
	retq
.LBB54_1:
	leaq	16(%rdi), %rax
	testq	%rcx, %rcx
	je	.LBB54_3
	cmpl	$1, %ecx
	jne	.LBB54_5
.LBB54_3:
	movq	(%rax), %rsi
	testq	%rsi, %rsi
	je	.LBB54_4
	movq	24(%rdi), %rdi
	movl	$1, %edx
	jmpq	*_RNvCsb3o7Y5DtQ0O_7___rustc14___rust_dealloc@GOTPCREL(%rip)
.LBB54_5:
	movq	%rax, %rdi
	jmp	_ZN4core3ptr42drop_in_place$LT$std..io..error..Error$GT$17hb5a2048f539dab14E
.Lfunc_end54:
	.size	_ZN4core3ptr124drop_in_place$LT$std..sync..poison..mutex..Mutex$LT$core..option..Option$LT$rust_strengths_demo..ProcessingError$GT$$GT$$GT$17hdd8447b92f4139fdE, .Lfunc_end54-_ZN4core3ptr124drop_in_place$LT$std..sync..poison..mutex..Mutex$LT$core..option..Option$LT$rust_strengths_demo..ProcessingError$GT$$GT$$GT$17hdd8447b92f4139fdE
	.cfi_endproc

	.section	".text._ZN4core3ptr127drop_in_place$LT$core..option..Option$LT$alloc..vec..into_iter..IntoIter$LT$clap_builder..util..any_value..AnyValue$GT$$GT$$GT$17hce4266d3a9b81bc2E","ax",@progbits
	.p2align	4
	.type	_ZN4core3ptr127drop_in_place$LT$core..option..Option$LT$alloc..vec..into_iter..IntoIter$LT$clap_builder..util..any_value..AnyValue$GT$$GT$$GT$17hce4266d3a9b81bc2E,@function
_ZN4core3ptr127drop_in_place$LT$core..option..Option$LT$alloc..vec..into_iter..IntoIter$LT$clap_builder..util..any_value..AnyValue$GT$$GT$$GT$17hce4266d3a9b81bc2E:
.Lfunc_begin24:
	.cfi_startproc
	.cfi_personality 155, DW.ref.rust_eh_personality
	.cfi_lsda 27, .Lexception24
	pushq	%rbp
	.cfi_def_cfa_offset 16
	pushq	%r15
	.cfi_def_cfa_offset 24
	pushq	%r14
	.cfi_def_cfa_offset 32
	pushq	%r13
	.cfi_def_cfa_offset 40
	pushq	%r12
	.cfi_def_cfa_offset 48
	pushq	%rbx
	.cfi_def_cfa_offset 56
	pushq	%rax
	.cfi_def_cfa_offset 64
	.cfi_offset %rbx, -56
	.cfi_offset %r12, -48
	.cfi_offset %r13, -40
	.cfi_offset %r14, -32
	.cfi_offset %r15, -24
	.cfi_offset %rbp, -16
	movq	(%rdi), %rbx
	testq	%rbx, %rbx
	je	.LBB55_17
	movq	%rdi, %r14
	movq	8(%rdi), %r15
	movq	24(%rdi), %rax
	subq	%r15, %rax
	je	.LBB55_6
	shrq	$5, %rax
	movl	$1, %r13d
	subq	%rax, %r13
	movq	_ZN5alloc4sync16Arc$LT$T$C$A$GT$9drop_slow17had34b9b2d51cd27eE@GOTPCREL(%rip), %rbp
	jmp	.LBB55_3
	.p2align	4
.LBB55_5:
	addq	$32, %r15
	incq	%r13
	cmpq	$1, %r13
	je	.LBB55_6
.LBB55_3:
	movq	(%r15), %rax
	lock		decq	(%rax)
	jne	.LBB55_5
	#MEMBARRIER
.Ltmp383:
	movq	%r15, %rdi
	callq	*%rbp
.Ltmp384:
	jmp	.LBB55_5
.LBB55_6:
	movq	16(%r14), %rsi
	testq	%rsi, %rsi
	je	.LBB55_17
	shlq	$5, %rsi
	movl	$8, %edx
	movq	%rbx, %rdi
	addq	$8, %rsp
	.cfi_def_cfa_offset 56
	popq	%rbx
	.cfi_def_cfa_offset 48
	popq	%r12
	.cfi_def_cfa_offset 40
	popq	%r13
	.cfi_def_cfa_offset 32
	popq	%r14
	.cfi_def_cfa_offset 24
	popq	%r15
	.cfi_def_cfa_offset 16
	popq	%rbp
	.cfi_def_cfa_offset 8
	jmpq	*_RNvCsb3o7Y5DtQ0O_7___rustc14___rust_dealloc@GOTPCREL(%rip)
.LBB55_17:
	.cfi_def_cfa_offset 64
	addq	$8, %rsp
	.cfi_def_cfa_offset 56
	popq	%rbx
	.cfi_def_cfa_offset 48
	popq	%r12
	.cfi_def_cfa_offset 40
	popq	%r13
	.cfi_def_cfa_offset 32
	popq	%r14
	.cfi_def_cfa_offset 24
	popq	%r15
	.cfi_def_cfa_offset 16
	popq	%rbp
	.cfi_def_cfa_offset 8
	retq
.LBB55_11:
	.cfi_def_cfa_offset 64
.Ltmp385:
	movq	%rax, %r12
	testq	%r13, %r13
	jne	.LBB55_12
.LBB55_8:
	movq	16(%r14), %rsi
	testq	%rsi, %rsi
	je	.LBB55_10
	shlq	$5, %rsi
	movl	$8, %edx
	movq	%rbx, %rdi
	callq	*_RNvCsb3o7Y5DtQ0O_7___rustc14___rust_dealloc@GOTPCREL(%rip)
.LBB55_10:
	movq	%r12, %rdi
	callq	_Unwind_Resume@PLT
.LBB55_12:
	addq	$32, %r15
	negq	%r13
	jmp	.LBB55_13
	.p2align	4
.LBB55_15:
	addq	$32, %r15
	decq	%r13
	je	.LBB55_8
.LBB55_13:
	movq	(%r15), %rax
	lock		decq	(%rax)
	jne	.LBB55_15
	#MEMBARRIER
.Ltmp386:
	movq	%r15, %rdi
	callq	*%rbp
.Ltmp387:
	jmp	.LBB55_15
.LBB55_16:
.Ltmp388:
	callq	*_ZN4core9panicking16panic_in_cleanup17h6f48b941993644b5E@GOTPCREL(%rip)
.Lfunc_end55:
	.size	_ZN4core3ptr127drop_in_place$LT$core..option..Option$LT$alloc..vec..into_iter..IntoIter$LT$clap_builder..util..any_value..AnyValue$GT$$GT$$GT$17hce4266d3a9b81bc2E, .Lfunc_end55-_ZN4core3ptr127drop_in_place$LT$core..option..Option$LT$alloc..vec..into_iter..IntoIter$LT$clap_builder..util..any_value..AnyValue$GT$$GT$$GT$17hce4266d3a9b81bc2E
	.cfi_endproc
	.section	".gcc_except_table._ZN4core3ptr127drop_in_place$LT$core..option..Option$LT$alloc..vec..into_iter..IntoIter$LT$clap_builder..util..any_value..AnyValue$GT$$GT$$GT$17hce4266d3a9b81bc2E","a",@progbits
	.p2align	2, 0x0
GCC_except_table55:
.Lexception24:
	.byte	255
	.byte	155
	.uleb128 .Lttbase20-.Lttbaseref20
.Lttbaseref20:
	.byte	1
	.uleb128 .Lcst_end24-.Lcst_begin24
.Lcst_begin24:
	.uleb128 .Ltmp383-.Lfunc_begin24
	.uleb128 .Ltmp384-.Ltmp383
	.uleb128 .Ltmp385-.Lfunc_begin24
	.byte	0
	.uleb128 .Ltmp384-.Lfunc_begin24
	.uleb128 .Ltmp386-.Ltmp384
	.byte	0
	.byte	0
	.uleb128 .Ltmp386-.Lfunc_begin24
	.uleb128 .Ltmp387-.Ltmp386
	.uleb128 .Ltmp388-.Lfunc_begin24
	.byte	1
.Lcst_end24:
	.byte	127
	.byte	0
	.p2align	2, 0x0
.Lttbase20:
	.byte	0
	.p2align	2, 0x0

	.section	".text._ZN4core3ptr128drop_in_place$LT$alloc..collections..linked_list..IntoIter$LT$alloc..vec..Vec$LT$$LP$alloc..string..String$C$f64$RP$$GT$$GT$$GT$17hc13c1985d5a7556cE","ax",@progbits
	.p2align	4
	.type	_ZN4core3ptr128drop_in_place$LT$alloc..collections..linked_list..IntoIter$LT$alloc..vec..Vec$LT$$LP$alloc..string..String$C$f64$RP$$GT$$GT$$GT$17hc13c1985d5a7556cE,@function
_ZN4core3ptr128drop_in_place$LT$alloc..collections..linked_list..IntoIter$LT$alloc..vec..Vec$LT$$LP$alloc..string..String$C$f64$RP$$GT$$GT$$GT$17hc13c1985d5a7556cE:
	.cfi_startproc
	pushq	%rbp
	.cfi_def_cfa_offset 16
	pushq	%r15
	.cfi_def_cfa_offset 24
	pushq	%r14
	.cfi_def_cfa_offset 32
	pushq	%r13
	.cfi_def_cfa_offset 40
	pushq	%r12
	.cfi_def_cfa_offset 48
	pushq	%rbx
	.cfi_def_cfa_offset 56
	subq	$24, %rsp
	.cfi_def_cfa_offset 80
	.cfi_offset %rbx, -56
	.cfi_offset %r12, -48
	.cfi_offset %r13, -40
	.cfi_offset %r14, -32
	.cfi_offset %r15, -24
	.cfi_offset %rbp, -16
	movq	(%rdi), %r14
	testq	%r14, %r14
	je	.LBB56_13
	movq	16(%rdi), %rax
	movq	_RNvCsb3o7Y5DtQ0O_7___rustc14___rust_dealloc@GOTPCREL(%rip), %r13
	movq	%rdi, 8(%rsp)
	jmp	.LBB56_2
	.p2align	4
.LBB56_12:
	movl	$40, %esi
	movl	$8, %edx
	movq	%r14, %rdi
	callq	*%r13
	movq	%rbp, %r14
	testq	%rbp, %rbp
	movq	8(%rsp), %rdi
	movq	16(%rsp), %rax
	je	.LBB56_13
.LBB56_2:
	movq	24(%r14), %rbp
	movq	%rbp, (%rdi)
	testq	%rbp, %rbp
	je	.LBB56_4
	movq	$0, 32(%rbp)
	jmp	.LBB56_5
	.p2align	4
.LBB56_4:
	movq	$0, 8(%rdi)
.LBB56_5:
	decq	%rax
	movq	%rax, 16(%rsp)
	movq	%rax, 16(%rdi)
	movq	8(%r14), %r15
	movq	16(%r14), %rbx
	testq	%rbx, %rbx
	je	.LBB56_10
	leaq	8(%r15), %r12
	jmp	.LBB56_7
	.p2align	4
.LBB56_9:
	addq	$32, %r12
	decq	%rbx
	je	.LBB56_10
.LBB56_7:
	movq	-8(%r12), %rsi
	testq	%rsi, %rsi
	je	.LBB56_9
	movq	(%r12), %rdi
	movl	$1, %edx
	callq	*%r13
	jmp	.LBB56_9
	.p2align	4
.LBB56_10:
	movq	(%r14), %rsi
	testq	%rsi, %rsi
	je	.LBB56_12
	shlq	$5, %rsi
	movl	$8, %edx
	movq	%r15, %rdi
	callq	*%r13
	jmp	.LBB56_12
.LBB56_13:
	addq	$24, %rsp
	.cfi_def_cfa_offset 56
	popq	%rbx
	.cfi_def_cfa_offset 48
	popq	%r12
	.cfi_def_cfa_offset 40
	popq	%r13
	.cfi_def_cfa_offset 32
	popq	%r14
	.cfi_def_cfa_offset 24
	popq	%r15
	.cfi_def_cfa_offset 16
	popq	%rbp
	.cfi_def_cfa_offset 8
	retq
.Lfunc_end56:
	.size	_ZN4core3ptr128drop_in_place$LT$alloc..collections..linked_list..IntoIter$LT$alloc..vec..Vec$LT$$LP$alloc..string..String$C$f64$RP$$GT$$GT$$GT$17hc13c1985d5a7556cE, .Lfunc_end56-_ZN4core3ptr128drop_in_place$LT$alloc..collections..linked_list..IntoIter$LT$alloc..vec..Vec$LT$$LP$alloc..string..String$C$f64$RP$$GT$$GT$$GT$17hc13c1985d5a7556cE
	.cfi_endproc

	.section	".text._ZN4core3ptr130drop_in_place$LT$alloc..collections..linked_list..LinkedList$LT$alloc..vec..Vec$LT$$LP$alloc..string..String$C$f64$RP$$GT$$GT$$GT$17h296e51bd0818405aE","ax",@progbits
	.p2align	4
	.type	_ZN4core3ptr130drop_in_place$LT$alloc..collections..linked_list..LinkedList$LT$alloc..vec..Vec$LT$$LP$alloc..string..String$C$f64$RP$$GT$$GT$$GT$17h296e51bd0818405aE,@function
_ZN4core3ptr130drop_in_place$LT$alloc..collections..linked_list..LinkedList$LT$alloc..vec..Vec$LT$$LP$alloc..string..String$C$f64$RP$$GT$$GT$$GT$17h296e51bd0818405aE:
	.cfi_startproc
	pushq	%rbp
	.cfi_def_cfa_offset 16
	pushq	%r15
	.cfi_def_cfa_offset 24
	pushq	%r14
	.cfi_def_cfa_offset 32
	pushq	%r13
	.cfi_def_cfa_offset 40
	pushq	%r12
	.cfi_def_cfa_offset 48
	pushq	%rbx
	.cfi_def_cfa_offset 56
	subq	$24, %rsp
	.cfi_def_cfa_offset 80
	.cfi_offset %rbx, -56
	.cfi_offset %r12, -48
	.cfi_offset %r13, -40
	.cfi_offset %r14, -32
	.cfi_offset %r15, -24
	.cfi_offset %rbp, -16
	movq	(%rdi), %r14
	testq	%r14, %r14
	je	.LBB57_13
	movq	16(%rdi), %rax
	movq	_RNvCsb3o7Y5DtQ0O_7___rustc14___rust_dealloc@GOTPCREL(%rip), %r13
	movq	%rdi, 8(%rsp)
	jmp	.LBB57_2
	.p2align	4
.LBB57_12:
	movl	$40, %esi
	movl	$8, %edx
	movq	%r14, %rdi
	callq	*%r13
	movq	%rbp, %r14
	testq	%rbp, %rbp
	movq	8(%rsp), %rdi
	movq	16(%rsp), %rax
	je	.LBB57_13
.LBB57_2:
	movq	24(%r14), %rbp
	movq	%rbp, (%rdi)
	testq	%rbp, %rbp
	je	.LBB57_4
	movq	$0, 32(%rbp)
	jmp	.LBB57_5
	.p2align	4
.LBB57_4:
	movq	$0, 8(%rdi)
.LBB57_5:
	decq	%rax
	movq	%rax, 16(%rsp)
	movq	%rax, 16(%rdi)
	movq	8(%r14), %r15
	movq	16(%r14), %rbx
	testq	%rbx, %rbx
	je	.LBB57_10
	leaq	8(%r15), %r12
	jmp	.LBB57_7
	.p2align	4
.LBB57_9:
	addq	$32, %r12
	decq	%rbx
	je	.LBB57_10
.LBB57_7:
	movq	-8(%r12), %rsi
	testq	%rsi, %rsi
	je	.LBB57_9
	movq	(%r12), %rdi
	movl	$1, %edx
	callq	*%r13
	jmp	.LBB57_9
	.p2align	4
.LBB57_10:
	movq	(%r14), %rsi
	testq	%rsi, %rsi
	je	.LBB57_12
	shlq	$5, %rsi
	movl	$8, %edx
	movq	%r15, %rdi
	callq	*%r13
	jmp	.LBB57_12
.LBB57_13:
	addq	$24, %rsp
	.cfi_def_cfa_offset 56
	popq	%rbx
	.cfi_def_cfa_offset 48
	popq	%r12
	.cfi_def_cfa_offset 40
	popq	%r13
	.cfi_def_cfa_offset 32
	popq	%r14
	.cfi_def_cfa_offset 24
	popq	%r15
	.cfi_def_cfa_offset 16
	popq	%rbp
	.cfi_def_cfa_offset 8
	retq
.Lfunc_end57:
	.size	_ZN4core3ptr130drop_in_place$LT$alloc..collections..linked_list..LinkedList$LT$alloc..vec..Vec$LT$$LP$alloc..string..String$C$f64$RP$$GT$$GT$$GT$17h296e51bd0818405aE, .Lfunc_end57-_ZN4core3ptr130drop_in_place$LT$alloc..collections..linked_list..LinkedList$LT$alloc..vec..Vec$LT$$LP$alloc..string..String$C$f64$RP$$GT$$GT$$GT$17h296e51bd0818405aE
	.cfi_endproc

	.section	".text._ZN4core3ptr130drop_in_place$LT$core..result..Result$LT$$LP$$RP$$C$alloc..boxed..Box$LT$dyn$u20$core..any..Any$u2b$core..marker..Send$GT$$GT$$GT$17h5b707919d685f4f4E","ax",@progbits
	.p2align	4
	.type	_ZN4core3ptr130drop_in_place$LT$core..result..Result$LT$$LP$$RP$$C$alloc..boxed..Box$LT$dyn$u20$core..any..Any$u2b$core..marker..Send$GT$$GT$$GT$17h5b707919d685f4f4E,@function
_ZN4core3ptr130drop_in_place$LT$core..result..Result$LT$$LP$$RP$$C$alloc..boxed..Box$LT$dyn$u20$core..any..Any$u2b$core..marker..Send$GT$$GT$$GT$17h5b707919d685f4f4E:
.Lfunc_begin25:
	.cfi_startproc
	.cfi_personality 155, DW.ref.rust_eh_personality
	.cfi_lsda 27, .Lexception25
	pushq	%r15
	.cfi_def_cfa_offset 16
	pushq	%r14
	.cfi_def_cfa_offset 24
	pushq	%rbx
	.cfi_def_cfa_offset 32
	.cfi_offset %rbx, -32
	.cfi_offset %r14, -24
	.cfi_offset %r15, -16
	testq	%rdi, %rdi
	je	.LBB58_8
	movq	%rsi, %r14
	movq	%rdi, %rbx
	movq	(%rsi), %rax
	testq	%rax, %rax
	je	.LBB58_3
.Ltmp389:
	movq	%rbx, %rdi
	callq	*%rax
.Ltmp390:
.LBB58_3:
	movq	8(%r14), %rsi
	testq	%rsi, %rsi
	je	.LBB58_8
	movq	16(%r14), %rdx
	movq	%rbx, %rdi
	popq	%rbx
	.cfi_def_cfa_offset 24
	popq	%r14
	.cfi_def_cfa_offset 16
	popq	%r15
	.cfi_def_cfa_offset 8
	jmpq	*_RNvCsb3o7Y5DtQ0O_7___rustc14___rust_dealloc@GOTPCREL(%rip)
.LBB58_8:
	.cfi_def_cfa_offset 32
	popq	%rbx
	.cfi_def_cfa_offset 24
	popq	%r14
	.cfi_def_cfa_offset 16
	popq	%r15
	.cfi_def_cfa_offset 8
	retq
.LBB58_5:
	.cfi_def_cfa_offset 32
.Ltmp391:
	movq	%rax, %r15
	movq	8(%r14), %rsi
	testq	%rsi, %rsi
	je	.LBB58_7
	movq	16(%r14), %rdx
	movq	%rbx, %rdi
	callq	*_RNvCsb3o7Y5DtQ0O_7___rustc14___rust_dealloc@GOTPCREL(%rip)
.LBB58_7:
	movq	%r15, %rdi
	callq	_Unwind_Resume@PLT
.Lfunc_end58:
	.size	_ZN4core3ptr130drop_in_place$LT$core..result..Result$LT$$LP$$RP$$C$alloc..boxed..Box$LT$dyn$u20$core..any..Any$u2b$core..marker..Send$GT$$GT$$GT$17h5b707919d685f4f4E, .Lfunc_end58-_ZN4core3ptr130drop_in_place$LT$core..result..Result$LT$$LP$$RP$$C$alloc..boxed..Box$LT$dyn$u20$core..any..Any$u2b$core..marker..Send$GT$$GT$$GT$17h5b707919d685f4f4E
	.cfi_endproc
	.section	".gcc_except_table._ZN4core3ptr130drop_in_place$LT$core..result..Result$LT$$LP$$RP$$C$alloc..boxed..Box$LT$dyn$u20$core..any..Any$u2b$core..marker..Send$GT$$GT$$GT$17h5b707919d685f4f4E","a",@progbits
	.p2align	2, 0x0
GCC_except_table58:
.Lexception25:
	.byte	255
	.byte	255
	.byte	1
	.uleb128 .Lcst_end25-.Lcst_begin25
.Lcst_begin25:
	.uleb128 .Ltmp389-.Lfunc_begin25
	.uleb128 .Ltmp390-.Ltmp389
	.uleb128 .Ltmp391-.Lfunc_begin25
	.byte	0
	.uleb128 .Ltmp390-.Lfunc_begin25
	.uleb128 .Lfunc_end58-.Ltmp390
	.byte	0
	.byte	0
.Lcst_end25:
	.p2align	2, 0x0

	.section	".text._ZN4core3ptr164drop_in_place$LT$rayon_core..job..JobResult$LT$alloc..collections..linked_list..LinkedList$LT$alloc..vec..Vec$LT$$LP$alloc..string..String$C$f64$RP$$GT$$GT$$GT$$GT$17h79271feb888436daE","ax",@progbits
	.p2align	4
	.type	_ZN4core3ptr164drop_in_place$LT$rayon_core..job..JobResult$LT$alloc..collections..linked_list..LinkedList$LT$alloc..vec..Vec$LT$$LP$alloc..string..String$C$f64$RP$$GT$$GT$$GT$$GT$17h79271feb888436daE,@function
_ZN4core3ptr164drop_in_place$LT$rayon_core..job..JobResult$LT$alloc..collections..linked_list..LinkedList$LT$alloc..vec..Vec$LT$$LP$alloc..string..String$C$f64$RP$$GT$$GT$$GT$$GT$17h79271feb888436daE:
.Lfunc_begin26:
	.cfi_startproc
	.cfi_personality 155, DW.ref.rust_eh_personality
	.cfi_lsda 27, .Lexception26
	pushq	%rbp
	.cfi_def_cfa_offset 16
	pushq	%r15
	.cfi_def_cfa_offset 24
	pushq	%r14
	.cfi_def_cfa_offset 32
	pushq	%r13
	.cfi_def_cfa_offset 40
	pushq	%r12
	.cfi_def_cfa_offset 48
	pushq	%rbx
	.cfi_def_cfa_offset 56
	subq	$24, %rsp
	.cfi_def_cfa_offset 80
	.cfi_offset %rbx, -56
	.cfi_offset %r12, -48
	.cfi_offset %r13, -40
	.cfi_offset %r14, -32
	.cfi_offset %r15, -24
	.cfi_offset %rbp, -16
	movq	(%rdi), %rax
	testq	%rax, %rax
	je	.LBB59_22
	cmpl	$1, %eax
	jne	.LBB59_2
	movq	8(%rdi), %r14
	testq	%r14, %r14
	je	.LBB59_22
	movq	24(%rdi), %rax
	movq	_RNvCsb3o7Y5DtQ0O_7___rustc14___rust_dealloc@GOTPCREL(%rip), %r13
	movq	%rdi, 8(%rsp)
	jmp	.LBB59_11
	.p2align	4
.LBB59_21:
	movl	$40, %esi
	movl	$8, %edx
	movq	%r14, %rdi
	callq	*%r13
	movq	%rbp, %r14
	testq	%rbp, %rbp
	movq	8(%rsp), %rdi
	movq	16(%rsp), %rax
	je	.LBB59_22
.LBB59_11:
	movq	24(%r14), %rbp
	movq	%rbp, 8(%rdi)
	testq	%rbp, %rbp
	je	.LBB59_13
	movq	$0, 32(%rbp)
	jmp	.LBB59_14
	.p2align	4
.LBB59_13:
	movq	$0, 16(%rdi)
.LBB59_14:
	decq	%rax
	movq	%rax, 16(%rsp)
	movq	%rax, 24(%rdi)
	movq	8(%r14), %r15
	movq	16(%r14), %rbx
	testq	%rbx, %rbx
	je	.LBB59_19
	leaq	8(%r15), %r12
	jmp	.LBB59_16
	.p2align	4
.LBB59_18:
	addq	$32, %r12
	decq	%rbx
	je	.LBB59_19
.LBB59_16:
	movq	-8(%r12), %rsi
	testq	%rsi, %rsi
	je	.LBB59_18
	movq	(%r12), %rdi
	movl	$1, %edx
	callq	*%r13
	jmp	.LBB59_18
	.p2align	4
.LBB59_19:
	movq	(%r14), %rsi
	testq	%rsi, %rsi
	je	.LBB59_21
	shlq	$5, %rsi
	movl	$8, %edx
	movq	%r15, %rdi
	callq	*%r13
	jmp	.LBB59_21
.LBB59_2:
	movq	8(%rdi), %r14
	movq	16(%rdi), %r15
	movq	(%r15), %rax
	testq	%rax, %rax
	je	.LBB59_4
.Ltmp392:
	movq	%r14, %rdi
	callq	*%rax
.Ltmp393:
.LBB59_4:
	movq	8(%r15), %rsi
	testq	%rsi, %rsi
	je	.LBB59_22
	movq	16(%r15), %rdx
	movq	%r14, %rdi
	addq	$24, %rsp
	.cfi_def_cfa_offset 56
	popq	%rbx
	.cfi_def_cfa_offset 48
	popq	%r12
	.cfi_def_cfa_offset 40
	popq	%r13
	.cfi_def_cfa_offset 32
	popq	%r14
	.cfi_def_cfa_offset 24
	popq	%r15
	.cfi_def_cfa_offset 16
	popq	%rbp
	.cfi_def_cfa_offset 8
	jmpq	*_RNvCsb3o7Y5DtQ0O_7___rustc14___rust_dealloc@GOTPCREL(%rip)
.LBB59_22:
	.cfi_def_cfa_offset 80
	addq	$24, %rsp
	.cfi_def_cfa_offset 56
	popq	%rbx
	.cfi_def_cfa_offset 48
	popq	%r12
	.cfi_def_cfa_offset 40
	popq	%r13
	.cfi_def_cfa_offset 32
	popq	%r14
	.cfi_def_cfa_offset 24
	popq	%r15
	.cfi_def_cfa_offset 16
	popq	%rbp
	.cfi_def_cfa_offset 8
	retq
.LBB59_6:
	.cfi_def_cfa_offset 80
.Ltmp394:
	movq	%rax, %rbx
	movq	8(%r15), %rsi
	testq	%rsi, %rsi
	je	.LBB59_8
	movq	16(%r15), %rdx
	movq	%r14, %rdi
	callq	*_RNvCsb3o7Y5DtQ0O_7___rustc14___rust_dealloc@GOTPCREL(%rip)
.LBB59_8:
	movq	%rbx, %rdi
	callq	_Unwind_Resume@PLT
.Lfunc_end59:
	.size	_ZN4core3ptr164drop_in_place$LT$rayon_core..job..JobResult$LT$alloc..collections..linked_list..LinkedList$LT$alloc..vec..Vec$LT$$LP$alloc..string..String$C$f64$RP$$GT$$GT$$GT$$GT$17h79271feb888436daE, .Lfunc_end59-_ZN4core3ptr164drop_in_place$LT$rayon_core..job..JobResult$LT$alloc..collections..linked_list..LinkedList$LT$alloc..vec..Vec$LT$$LP$alloc..string..String$C$f64$RP$$GT$$GT$$GT$$GT$17h79271feb888436daE
	.cfi_endproc
	.section	".gcc_except_table._ZN4core3ptr164drop_in_place$LT$rayon_core..job..JobResult$LT$alloc..collections..linked_list..LinkedList$LT$alloc..vec..Vec$LT$$LP$alloc..string..String$C$f64$RP$$GT$$GT$$GT$$GT$17h79271feb888436daE","a",@progbits
	.p2align	2, 0x0
GCC_except_table59:
.Lexception26:
	.byte	255
	.byte	255
	.byte	1
	.uleb128 .Lcst_end26-.Lcst_begin26
.Lcst_begin26:
	.uleb128 .Lfunc_begin26-.Lfunc_begin26
	.uleb128 .Ltmp392-.Lfunc_begin26
	.byte	0
	.byte	0
	.uleb128 .Ltmp392-.Lfunc_begin26
	.uleb128 .Ltmp393-.Ltmp392
	.uleb128 .Ltmp394-.Lfunc_begin26
	.byte	0
	.uleb128 .Ltmp393-.Lfunc_begin26
	.uleb128 .Lfunc_end59-.Ltmp393
	.byte	0
	.byte	0
.Lcst_end26:
	.p2align	2, 0x0

	.section	".text._ZN4core3ptr177drop_in_place$LT$alloc..vec..Vec$LT$alloc..boxed..Box$LT$dyn$u20$core..ops..function..FnOnce$LT$$LP$$RP$$GT$$u2b$Output$u20$$u3d$$u20$$LP$$RP$$u2b$core..marker..Send$GT$$GT$$GT$17h483472da247fa4fbE","ax",@progbits
	.p2align	4
	.type	_ZN4core3ptr177drop_in_place$LT$alloc..vec..Vec$LT$alloc..boxed..Box$LT$dyn$u20$core..ops..function..FnOnce$LT$$LP$$RP$$GT$$u2b$Output$u20$$u3d$$u20$$LP$$RP$$u2b$core..marker..Send$GT$$GT$$GT$17h483472da247fa4fbE,@function
_ZN4core3ptr177drop_in_place$LT$alloc..vec..Vec$LT$alloc..boxed..Box$LT$dyn$u20$core..ops..function..FnOnce$LT$$LP$$RP$$GT$$u2b$Output$u20$$u3d$$u20$$LP$$RP$$u2b$core..marker..Send$GT$$GT$$GT$17h483472da247fa4fbE:
.Lfunc_begin27:
	.cfi_startproc
	.cfi_personality 155, DW.ref.rust_eh_personality
	.cfi_lsda 27, .Lexception27
	pushq	%rbp
	.cfi_def_cfa_offset 16
	pushq	%r15
	.cfi_def_cfa_offset 24
	pushq	%r14
	.cfi_def_cfa_offset 32
	pushq	%r13
	.cfi_def_cfa_offset 40
	pushq	%r12
	.cfi_def_cfa_offset 48
	pushq	%rbx
	.cfi_def_cfa_offset 56
	pushq	%rax
	.cfi_def_cfa_offset 64
	.cfi_offset %rbx, -56
	.cfi_offset %r12, -48
	.cfi_offset %r13, -40
	.cfi_offset %r14, -32
	.cfi_offset %r15, -24
	.cfi_offset %rbp, -16
	movq	%rdi, %r14
	movq	8(%rdi), %rax
	movq	%rax, (%rsp)
	movq	16(%rdi), %r13
	testq	%r13, %r13
	je	.LBB60_7
	movq	(%rsp), %rax
	leaq	24(%rax), %rbp
	movq	_RNvCsb3o7Y5DtQ0O_7___rustc14___rust_dealloc@GOTPCREL(%rip), %r15
	jmp	.LBB60_2
	.p2align	4
.LBB60_6:
	addq	$16, %rbp
	decq	%r13
	je	.LBB60_7
.LBB60_2:
	movq	-24(%rbp), %r12
	movq	-16(%rbp), %rbx
	movq	(%rbx), %rax
	testq	%rax, %rax
	je	.LBB60_4
.Ltmp395:
	movq	%r12, %rdi
	callq	*%rax
.Ltmp396:
.LBB60_4:
	movq	8(%rbx), %rsi
	testq	%rsi, %rsi
	je	.LBB60_6
	movq	16(%rbx), %rdx
	movq	%r12, %rdi
	callq	*%r15
	jmp	.LBB60_6
.LBB60_7:
	movq	(%r14), %rsi
	testq	%rsi, %rsi
	je	.LBB60_17
	shlq	$4, %rsi
	movl	$8, %edx
	movq	(%rsp), %rdi
	addq	$8, %rsp
	.cfi_def_cfa_offset 56
	popq	%rbx
	.cfi_def_cfa_offset 48
	popq	%r12
	.cfi_def_cfa_offset 40
	popq	%r13
	.cfi_def_cfa_offset 32
	popq	%r14
	.cfi_def_cfa_offset 24
	popq	%r15
	.cfi_def_cfa_offset 16
	popq	%rbp
	.cfi_def_cfa_offset 8
	jmpq	*_RNvCsb3o7Y5DtQ0O_7___rustc14___rust_dealloc@GOTPCREL(%rip)
.LBB60_17:
	.cfi_def_cfa_offset 64
	addq	$8, %rsp
	.cfi_def_cfa_offset 56
	popq	%rbx
	.cfi_def_cfa_offset 48
	popq	%r12
	.cfi_def_cfa_offset 40
	popq	%r13
	.cfi_def_cfa_offset 32
	popq	%r14
	.cfi_def_cfa_offset 24
	popq	%r15
	.cfi_def_cfa_offset 16
	popq	%rbp
	.cfi_def_cfa_offset 8
	retq
.LBB60_9:
	.cfi_def_cfa_offset 64
.Ltmp397:
	movq	%rax, %r15
	movq	8(%rbx), %rsi
	testq	%rsi, %rsi
	je	.LBB60_11
	movq	16(%rbx), %rdx
	movq	%r12, %rdi
	callq	*_RNvCsb3o7Y5DtQ0O_7___rustc14___rust_dealloc@GOTPCREL(%rip)
	.p2align	4
.LBB60_11:
	decq	%r13
	je	.LBB60_14
	leaq	16(%rbp), %rbx
	movq	-8(%rbp), %rdi
	movq	(%rbp), %rsi
.Ltmp398:
	callq	_ZN4core3ptr118drop_in_place$LT$alloc..boxed..Box$LT$dyn$u20$core..error..Error$u2b$core..marker..Send$u2b$core..marker..Sync$GT$$GT$17hd5ca401a6d1e4c94E
.Ltmp399:
	movq	%rbx, %rbp
	jmp	.LBB60_11
.LBB60_14:
	movq	(%r14), %rsi
	testq	%rsi, %rsi
	je	.LBB60_16
	shlq	$4, %rsi
	movl	$8, %edx
	movq	(%rsp), %rdi
	callq	*_RNvCsb3o7Y5DtQ0O_7___rustc14___rust_dealloc@GOTPCREL(%rip)
.LBB60_16:
	movq	%r15, %rdi
	callq	_Unwind_Resume@PLT
.LBB60_13:
.Ltmp400:
	callq	*_ZN4core9panicking16panic_in_cleanup17h6f48b941993644b5E@GOTPCREL(%rip)
.Lfunc_end60:
	.size	_ZN4core3ptr177drop_in_place$LT$alloc..vec..Vec$LT$alloc..boxed..Box$LT$dyn$u20$core..ops..function..FnOnce$LT$$LP$$RP$$GT$$u2b$Output$u20$$u3d$$u20$$LP$$RP$$u2b$core..marker..Send$GT$$GT$$GT$17h483472da247fa4fbE, .Lfunc_end60-_ZN4core3ptr177drop_in_place$LT$alloc..vec..Vec$LT$alloc..boxed..Box$LT$dyn$u20$core..ops..function..FnOnce$LT$$LP$$RP$$GT$$u2b$Output$u20$$u3d$$u20$$LP$$RP$$u2b$core..marker..Send$GT$$GT$$GT$17h483472da247fa4fbE
	.cfi_endproc
	.section	".gcc_except_table._ZN4core3ptr177drop_in_place$LT$alloc..vec..Vec$LT$alloc..boxed..Box$LT$dyn$u20$core..ops..function..FnOnce$LT$$LP$$RP$$GT$$u2b$Output$u20$$u3d$$u20$$LP$$RP$$u2b$core..marker..Send$GT$$GT$$GT$17h483472da247fa4fbE","a",@progbits
	.p2align	2, 0x0
GCC_except_table60:
.Lexception27:
	.byte	255
	.byte	155
	.uleb128 .Lttbase21-.Lttbaseref21
.Lttbaseref21:
	.byte	1
	.uleb128 .Lcst_end27-.Lcst_begin27
.Lcst_begin27:
	.uleb128 .Ltmp395-.Lfunc_begin27
	.uleb128 .Ltmp396-.Ltmp395
	.uleb128 .Ltmp397-.Lfunc_begin27
	.byte	0
	.uleb128 .Ltmp396-.Lfunc_begin27
	.uleb128 .Ltmp398-.Ltmp396
	.byte	0
	.byte	0
	.uleb128 .Ltmp398-.Lfunc_begin27
	.uleb128 .Ltmp399-.Ltmp398
	.uleb128 .Ltmp400-.Lfunc_begin27
	.byte	1
	.uleb128 .Ltmp399-.Lfunc_begin27
	.uleb128 .Lfunc_end60-.Ltmp399
	.byte	0
	.byte	0
.Lcst_end27:
	.byte	127
	.byte	0
	.p2align	2, 0x0
.Lttbase21:
	.byte	0
	.p2align	2, 0x0

	.section	".text._ZN4core3ptr180drop_in_place$LT$std..thread..Builder..spawn_unchecked_$LT$rust_strengths_demo..concurrent_counter_demo..$u7b$$u7b$closure$u7d$$u7d$$C$$LP$$RP$$GT$..$u7b$$u7b$closure$u7d$$u7d$$GT$17h2fa1c01f06a62cdaE","ax",@progbits
	.p2align	4
	.type	_ZN4core3ptr180drop_in_place$LT$std..thread..Builder..spawn_unchecked_$LT$rust_strengths_demo..concurrent_counter_demo..$u7b$$u7b$closure$u7d$$u7d$$C$$LP$$RP$$GT$..$u7b$$u7b$closure$u7d$$u7d$$GT$17h2fa1c01f06a62cdaE,@function
_ZN4core3ptr180drop_in_place$LT$std..thread..Builder..spawn_unchecked_$LT$rust_strengths_demo..concurrent_counter_demo..$u7b$$u7b$closure$u7d$$u7d$$C$$LP$$RP$$GT$..$u7b$$u7b$closure$u7d$$u7d$$GT$17h2fa1c01f06a62cdaE:
.Lfunc_begin28:
	.cfi_startproc
	.cfi_personality 155, DW.ref.rust_eh_personality
	.cfi_lsda 27, .Lexception28
	pushq	%r14
	.cfi_def_cfa_offset 16
	pushq	%rbx
	.cfi_def_cfa_offset 24
	pushq	%rax
	.cfi_def_cfa_offset 32
	.cfi_offset %rbx, -24
	.cfi_offset %r14, -16
	movq	%rdi, %rbx
	movq	32(%rdi), %rax
	lock		decq	(%rax)
	jne	.LBB61_2
	leaq	32(%rbx), %rdi
	#MEMBARRIER
.Ltmp401:
	callq	*_ZN5alloc4sync16Arc$LT$T$C$A$GT$9drop_slow17h0cfdd8536c45d5f7E@GOTPCREL(%rip)
.Ltmp402:
.LBB61_2:
	movq	48(%rbx), %rax
	lock		decq	(%rax)
	jne	.LBB61_4
	leaq	48(%rbx), %rdi
	#MEMBARRIER
	callq	_ZN5alloc4sync16Arc$LT$T$C$A$GT$9drop_slow17hcd7692ec7b8c2ff5E
.LBB61_4:
.Ltmp406:
	movq	%rbx, %rdi
	callq	_ZN4core3ptr60drop_in_place$LT$std..thread..spawnhook..ChildSpawnHooks$GT$17h04e3f0c35efce032E
.Ltmp407:
	movq	40(%rbx), %rax
	lock		decq	(%rax)
	jne	.LBB61_14
	addq	$40, %rbx
	#MEMBARRIER
	movq	%rbx, %rdi
	addq	$8, %rsp
	.cfi_def_cfa_offset 24
	popq	%rbx
	.cfi_def_cfa_offset 16
	popq	%r14
	.cfi_def_cfa_offset 8
	jmpq	*_ZN5alloc4sync16Arc$LT$T$C$A$GT$9drop_slow17hb815cdd2a5afdbb3E@GOTPCREL(%rip)
.LBB61_14:
	.cfi_def_cfa_offset 32
	addq	$8, %rsp
	.cfi_def_cfa_offset 24
	popq	%rbx
	.cfi_def_cfa_offset 16
	popq	%r14
	.cfi_def_cfa_offset 8
	retq
.LBB61_7:
	.cfi_def_cfa_offset 32
.Ltmp403:
	movq	%rax, %r14
	movq	48(%rbx), %rax
	lock		decq	(%rax)
	jne	.LBB61_9
	leaq	48(%rbx), %rdi
	#MEMBARRIER
	callq	_ZN5alloc4sync16Arc$LT$T$C$A$GT$9drop_slow17hcd7692ec7b8c2ff5E
.LBB61_9:
.Ltmp404:
	movq	%rbx, %rdi
	callq	_ZN4core3ptr60drop_in_place$LT$std..thread..spawnhook..ChildSpawnHooks$GT$17h04e3f0c35efce032E
.Ltmp405:
	jmp	.LBB61_10
.LBB61_13:
.Ltmp408:
	movq	%rax, %r14
.LBB61_10:
	movq	40(%rbx), %rax
	lock		decq	(%rax)
	jne	.LBB61_12
	addq	$40, %rbx
	#MEMBARRIER
.Ltmp409:
	movq	%rbx, %rdi
	callq	*_ZN5alloc4sync16Arc$LT$T$C$A$GT$9drop_slow17hb815cdd2a5afdbb3E@GOTPCREL(%rip)
.Ltmp410:
.LBB61_12:
	movq	%r14, %rdi
	callq	_Unwind_Resume@PLT
.LBB61_15:
.Ltmp411:
	callq	*_ZN4core9panicking16panic_in_cleanup17h6f48b941993644b5E@GOTPCREL(%rip)
.Lfunc_end61:
	.size	_ZN4core3ptr180drop_in_place$LT$std..thread..Builder..spawn_unchecked_$LT$rust_strengths_demo..concurrent_counter_demo..$u7b$$u7b$closure$u7d$$u7d$$C$$LP$$RP$$GT$..$u7b$$u7b$closure$u7d$$u7d$$GT$17h2fa1c01f06a62cdaE, .Lfunc_end61-_ZN4core3ptr180drop_in_place$LT$std..thread..Builder..spawn_unchecked_$LT$rust_strengths_demo..concurrent_counter_demo..$u7b$$u7b$closure$u7d$$u7d$$C$$LP$$RP$$GT$..$u7b$$u7b$closure$u7d$$u7d$$GT$17h2fa1c01f06a62cdaE
	.cfi_endproc
	.section	".gcc_except_table._ZN4core3ptr180drop_in_place$LT$std..thread..Builder..spawn_unchecked_$LT$rust_strengths_demo..concurrent_counter_demo..$u7b$$u7b$closure$u7d$$u7d$$C$$LP$$RP$$GT$..$u7b$$u7b$closure$u7d$$u7d$$GT$17h2fa1c01f06a62cdaE","a",@progbits
	.p2align	2, 0x0
GCC_except_table61:
.Lexception28:
	.byte	255
	.byte	155
	.uleb128 .Lttbase22-.Lttbaseref22
.Lttbaseref22:
	.byte	1
	.uleb128 .Lcst_end28-.Lcst_begin28
.Lcst_begin28:
	.uleb128 .Ltmp401-.Lfunc_begin28
	.uleb128 .Ltmp402-.Ltmp401
	.uleb128 .Ltmp403-.Lfunc_begin28
	.byte	0
	.uleb128 .Ltmp406-.Lfunc_begin28
	.uleb128 .Ltmp407-.Ltmp406
	.uleb128 .Ltmp408-.Lfunc_begin28
	.byte	0
	.uleb128 .Ltmp407-.Lfunc_begin28
	.uleb128 .Ltmp404-.Ltmp407
	.byte	0
	.byte	0
	.uleb128 .Ltmp404-.Lfunc_begin28
	.uleb128 .Ltmp410-.Ltmp404
	.uleb128 .Ltmp411-.Lfunc_begin28
	.byte	1
	.uleb128 .Ltmp410-.Lfunc_begin28
	.uleb128 .Lfunc_end61-.Ltmp410
	.byte	0
	.byte	0
.Lcst_end28:
	.byte	127
	.byte	0
	.p2align	2, 0x0
.Lttbase22:
	.byte	0
	.p2align	2, 0x0

	.section	".text._ZN4core3ptr188drop_in_place$LT$core..cell..UnsafeCell$LT$core..option..Option$LT$core..result..Result$LT$$LP$$RP$$C$alloc..boxed..Box$LT$dyn$u20$core..any..Any$u2b$core..marker..Send$GT$$GT$$GT$$GT$$GT$17h8745e1dc7f266f92E","ax",@progbits
	.p2align	4
	.type	_ZN4core3ptr188drop_in_place$LT$core..cell..UnsafeCell$LT$core..option..Option$LT$core..result..Result$LT$$LP$$RP$$C$alloc..boxed..Box$LT$dyn$u20$core..any..Any$u2b$core..marker..Send$GT$$GT$$GT$$GT$$GT$17h8745e1dc7f266f92E,@function
_ZN4core3ptr188drop_in_place$LT$core..cell..UnsafeCell$LT$core..option..Option$LT$core..result..Result$LT$$LP$$RP$$C$alloc..boxed..Box$LT$dyn$u20$core..any..Any$u2b$core..marker..Send$GT$$GT$$GT$$GT$$GT$17h8745e1dc7f266f92E:
.Lfunc_begin29:
	.cfi_startproc
	.cfi_personality 155, DW.ref.rust_eh_personality
	.cfi_lsda 27, .Lexception29
	pushq	%r15
	.cfi_def_cfa_offset 16
	pushq	%r14
	.cfi_def_cfa_offset 24
	pushq	%rbx
	.cfi_def_cfa_offset 32
	.cfi_offset %rbx, -32
	.cfi_offset %r14, -24
	.cfi_offset %r15, -16
	cmpq	$0, (%rdi)
	je	.LBB62_9
	movq	8(%rdi), %rbx
	testq	%rbx, %rbx
	je	.LBB62_9
	movq	16(%rdi), %r15
	movq	(%r15), %rax
	testq	%rax, %rax
	je	.LBB62_4
.Ltmp412:
	movq	%rbx, %rdi
	callq	*%rax
.Ltmp413:
.LBB62_4:
	movq	8(%r15), %rsi
	testq	%rsi, %rsi
	je	.LBB62_9
	movq	16(%r15), %rdx
	movq	%rbx, %rdi
	popq	%rbx
	.cfi_def_cfa_offset 24
	popq	%r14
	.cfi_def_cfa_offset 16
	popq	%r15
	.cfi_def_cfa_offset 8
	jmpq	*_RNvCsb3o7Y5DtQ0O_7___rustc14___rust_dealloc@GOTPCREL(%rip)
.LBB62_9:
	.cfi_def_cfa_offset 32
	popq	%rbx
	.cfi_def_cfa_offset 24
	popq	%r14
	.cfi_def_cfa_offset 16
	popq	%r15
	.cfi_def_cfa_offset 8
	retq
.LBB62_6:
	.cfi_def_cfa_offset 32
.Ltmp414:
	movq	%rax, %r14
	movq	8(%r15), %rsi
	testq	%rsi, %rsi
	je	.LBB62_8
	movq	16(%r15), %rdx
	movq	%rbx, %rdi
	callq	*_RNvCsb3o7Y5DtQ0O_7___rustc14___rust_dealloc@GOTPCREL(%rip)
.LBB62_8:
	movq	%r14, %rdi
	callq	_Unwind_Resume@PLT
.Lfunc_end62:
	.size	_ZN4core3ptr188drop_in_place$LT$core..cell..UnsafeCell$LT$core..option..Option$LT$core..result..Result$LT$$LP$$RP$$C$alloc..boxed..Box$LT$dyn$u20$core..any..Any$u2b$core..marker..Send$GT$$GT$$GT$$GT$$GT$17h8745e1dc7f266f92E, .Lfunc_end62-_ZN4core3ptr188drop_in_place$LT$core..cell..UnsafeCell$LT$core..option..Option$LT$core..result..Result$LT$$LP$$RP$$C$alloc..boxed..Box$LT$dyn$u20$core..any..Any$u2b$core..marker..Send$GT$$GT$$GT$$GT$$GT$17h8745e1dc7f266f92E
	.cfi_endproc
	.section	".gcc_except_table._ZN4core3ptr188drop_in_place$LT$core..cell..UnsafeCell$LT$core..option..Option$LT$core..result..Result$LT$$LP$$RP$$C$alloc..boxed..Box$LT$dyn$u20$core..any..Any$u2b$core..marker..Send$GT$$GT$$GT$$GT$$GT$17h8745e1dc7f266f92E","a",@progbits
	.p2align	2, 0x0
GCC_except_table62:
.Lexception29:
	.byte	255
	.byte	255
	.byte	1
	.uleb128 .Lcst_end29-.Lcst_begin29
.Lcst_begin29:
	.uleb128 .Ltmp412-.Lfunc_begin29
	.uleb128 .Ltmp413-.Ltmp412
	.uleb128 .Ltmp414-.Lfunc_begin29
	.byte	0
	.uleb128 .Ltmp413-.Lfunc_begin29
	.uleb128 .Lfunc_end62-.Ltmp413
	.byte	0
	.byte	0
.Lcst_end29:
	.p2align	2, 0x0

	.section	".text._ZN4core3ptr193drop_in_place$LT$core..iter..adapters..map..Map$LT$std..env..ArgsOs$C$$LT$clap_lex..RawArgs$u20$as$u20$core..convert..From$LT$std..env..ArgsOs$GT$$GT$..from..$u7b$$u7b$closure$u7d$$u7d$$GT$$GT$17h468289bd51a1311cE","ax",@progbits
	.p2align	4
	.type	_ZN4core3ptr193drop_in_place$LT$core..iter..adapters..map..Map$LT$std..env..ArgsOs$C$$LT$clap_lex..RawArgs$u20$as$u20$core..convert..From$LT$std..env..ArgsOs$GT$$GT$..from..$u7b$$u7b$closure$u7d$$u7d$$GT$$GT$17h468289bd51a1311cE,@function
_ZN4core3ptr193drop_in_place$LT$core..iter..adapters..map..Map$LT$std..env..ArgsOs$C$$LT$clap_lex..RawArgs$u20$as$u20$core..convert..From$LT$std..env..ArgsOs$GT$$GT$..from..$u7b$$u7b$closure$u7d$$u7d$$GT$$GT$17h468289bd51a1311cE:
	.cfi_startproc
	pushq	%r15
	.cfi_def_cfa_offset 16
	pushq	%r14
	.cfi_def_cfa_offset 24
	pushq	%r12
	.cfi_def_cfa_offset 32
	pushq	%rbx
	.cfi_def_cfa_offset 40
	pushq	%rax
	.cfi_def_cfa_offset 48
	.cfi_offset %rbx, -40
	.cfi_offset %r12, -32
	.cfi_offset %r14, -24
	.cfi_offset %r15, -16
	movq	%rdi, %rbx
	movq	8(%rdi), %r15
	movq	24(%rdi), %rcx
	movq	%rcx, %rax
	subq	%r15, %rax
	movabsq	$-6148914691236517205, %rdx
	mulq	%rdx
	cmpq	%r15, %rcx
	je	.LBB63_5
	movq	%rdx, %r14
	shrq	$4, %r14
	addq	$8, %r15
	movq	_RNvCsb3o7Y5DtQ0O_7___rustc14___rust_dealloc@GOTPCREL(%rip), %r12
	jmp	.LBB63_2
	.p2align	4
.LBB63_4:
	addq	$24, %r15
	decq	%r14
	je	.LBB63_5
.LBB63_2:
	movq	-8(%r15), %rsi
	testq	%rsi, %rsi
	je	.LBB63_4
	movq	(%r15), %rdi
	movl	$1, %edx
	callq	*%r12
	jmp	.LBB63_4
.LBB63_5:
	movq	16(%rbx), %rax
	testq	%rax, %rax
	je	.LBB63_6
	movq	(%rbx), %rdi
	shlq	$3, %rax
	leaq	(%rax,%rax,2), %rsi
	movl	$8, %edx
	addq	$8, %rsp
	.cfi_def_cfa_offset 40
	popq	%rbx
	.cfi_def_cfa_offset 32
	popq	%r12
	.cfi_def_cfa_offset 24
	popq	%r14
	.cfi_def_cfa_offset 16
	popq	%r15
	.cfi_def_cfa_offset 8
	jmpq	*_RNvCsb3o7Y5DtQ0O_7___rustc14___rust_dealloc@GOTPCREL(%rip)
.LBB63_6:
	.cfi_def_cfa_offset 48
	addq	$8, %rsp
	.cfi_def_cfa_offset 40
	popq	%rbx
	.cfi_def_cfa_offset 32
	popq	%r12
	.cfi_def_cfa_offset 24
	popq	%r14
	.cfi_def_cfa_offset 16
	popq	%r15
	.cfi_def_cfa_offset 8
	retq
.Lfunc_end63:
	.size	_ZN4core3ptr193drop_in_place$LT$core..iter..adapters..map..Map$LT$std..env..ArgsOs$C$$LT$clap_lex..RawArgs$u20$as$u20$core..convert..From$LT$std..env..ArgsOs$GT$$GT$..from..$u7b$$u7b$closure$u7d$$u7d$$GT$$GT$17h468289bd51a1311cE, .Lfunc_end63-_ZN4core3ptr193drop_in_place$LT$core..iter..adapters..map..Map$LT$std..env..ArgsOs$C$$LT$clap_lex..RawArgs$u20$as$u20$core..convert..From$LT$std..env..ArgsOs$GT$$GT$..from..$u7b$$u7b$closure$u7d$$u7d$$GT$$GT$17h468289bd51a1311cE
	.cfi_endproc

	.section	".text._ZN4core3ptr201drop_in_place$LT$core..cell..UnsafeCell$LT$core..option..Option$LT$core..result..Result$LT$alloc..string..String$C$alloc..boxed..Box$LT$dyn$u20$core..any..Any$u2b$core..marker..Send$GT$$GT$$GT$$GT$$GT$17hcd572c8231dbf9bfE","ax",@progbits
	.p2align	4
	.type	_ZN4core3ptr201drop_in_place$LT$core..cell..UnsafeCell$LT$core..option..Option$LT$core..result..Result$LT$alloc..string..String$C$alloc..boxed..Box$LT$dyn$u20$core..any..Any$u2b$core..marker..Send$GT$$GT$$GT$$GT$$GT$17hcd572c8231dbf9bfE,@function
_ZN4core3ptr201drop_in_place$LT$core..cell..UnsafeCell$LT$core..option..Option$LT$core..result..Result$LT$alloc..string..String$C$alloc..boxed..Box$LT$dyn$u20$core..any..Any$u2b$core..marker..Send$GT$$GT$$GT$$GT$$GT$17hcd572c8231dbf9bfE:
.Lfunc_begin30:
	.cfi_startproc
	.cfi_personality 155, DW.ref.rust_eh_personality
	.cfi_lsda 27, .Lexception30
	pushq	%r15
	.cfi_def_cfa_offset 16
	pushq	%r14
	.cfi_def_cfa_offset 24
	pushq	%rbx
	.cfi_def_cfa_offset 32
	.cfi_offset %rbx, -32
	.cfi_offset %r14, -24
	.cfi_offset %r15, -16
	movabsq	$-9223372036854775808, %rax
	movq	(%rdi), %rsi
	leaq	1(%rax), %rcx
	cmpq	%rcx, %rsi
	jne	.LBB64_1
.LBB64_12:
	popq	%rbx
	.cfi_def_cfa_offset 24
	popq	%r14
	.cfi_def_cfa_offset 16
	popq	%r15
	.cfi_def_cfa_offset 8
	retq
.LBB64_1:
	.cfi_def_cfa_offset 32
	cmpq	%rax, %rsi
	jne	.LBB64_2
	movq	8(%rdi), %rbx
	movq	16(%rdi), %r15
	movq	(%r15), %rax
	testq	%rax, %rax
	je	.LBB64_7
.Ltmp415:
	movq	%rbx, %rdi
	callq	*%rax
.Ltmp416:
.LBB64_7:
	movq	8(%r15), %rsi
	testq	%rsi, %rsi
	je	.LBB64_12
	movq	16(%r15), %rdx
	movq	%rbx, %rdi
	popq	%rbx
	.cfi_def_cfa_offset 24
	popq	%r14
	.cfi_def_cfa_offset 16
	popq	%r15
	.cfi_def_cfa_offset 8
	jmpq	*_RNvCsb3o7Y5DtQ0O_7___rustc14___rust_dealloc@GOTPCREL(%rip)
.LBB64_2:
	.cfi_def_cfa_offset 32
	testq	%rsi, %rsi
	je	.LBB64_12
	movq	8(%rdi), %rdi
	movl	$1, %edx
	popq	%rbx
	.cfi_def_cfa_offset 24
	popq	%r14
	.cfi_def_cfa_offset 16
	popq	%r15
	.cfi_def_cfa_offset 8
	jmpq	*_RNvCsb3o7Y5DtQ0O_7___rustc14___rust_dealloc@GOTPCREL(%rip)
.LBB64_9:
	.cfi_def_cfa_offset 32
.Ltmp417:
	movq	%rax, %r14
	movq	8(%r15), %rsi
	testq	%rsi, %rsi
	je	.LBB64_11
	movq	16(%r15), %rdx
	movq	%rbx, %rdi
	callq	*_RNvCsb3o7Y5DtQ0O_7___rustc14___rust_dealloc@GOTPCREL(%rip)
.LBB64_11:
	movq	%r14, %rdi
	callq	_Unwind_Resume@PLT
.Lfunc_end64:
	.size	_ZN4core3ptr201drop_in_place$LT$core..cell..UnsafeCell$LT$core..option..Option$LT$core..result..Result$LT$alloc..string..String$C$alloc..boxed..Box$LT$dyn$u20$core..any..Any$u2b$core..marker..Send$GT$$GT$$GT$$GT$$GT$17hcd572c8231dbf9bfE, .Lfunc_end64-_ZN4core3ptr201drop_in_place$LT$core..cell..UnsafeCell$LT$core..option..Option$LT$core..result..Result$LT$alloc..string..String$C$alloc..boxed..Box$LT$dyn$u20$core..any..Any$u2b$core..marker..Send$GT$$GT$$GT$$GT$$GT$17hcd572c8231dbf9bfE
	.cfi_endproc
	.section	".gcc_except_table._ZN4core3ptr201drop_in_place$LT$core..cell..UnsafeCell$LT$core..option..Option$LT$core..result..Result$LT$alloc..string..String$C$alloc..boxed..Box$LT$dyn$u20$core..any..Any$u2b$core..marker..Send$GT$$GT$$GT$$GT$$GT$17hcd572c8231dbf9bfE","a",@progbits
	.p2align	2, 0x0
GCC_except_table64:
.Lexception30:
	.byte	255
	.byte	255
	.byte	1
	.uleb128 .Lcst_end30-.Lcst_begin30
.Lcst_begin30:
	.uleb128 .Ltmp415-.Lfunc_begin30
	.uleb128 .Ltmp416-.Ltmp415
	.uleb128 .Ltmp417-.Lfunc_begin30
	.byte	0
	.uleb128 .Ltmp416-.Lfunc_begin30
	.uleb128 .Lfunc_end64-.Ltmp416
	.byte	0
	.byte	0
.Lcst_end30:
	.p2align	2, 0x0

	.section	".text._ZN4core3ptr213drop_in_place$LT$std..thread..Builder..spawn_unchecked_$LT$rust_strengths_demo..threading_demo..$u7b$$u7b$closure$u7d$$u7d$..$u7b$$u7b$closure$u7d$$u7d$$C$alloc..string..String$GT$..$u7b$$u7b$closure$u7d$$u7d$$GT$17h977ce7648b1eb260E","ax",@progbits
	.p2align	4
	.type	_ZN4core3ptr213drop_in_place$LT$std..thread..Builder..spawn_unchecked_$LT$rust_strengths_demo..threading_demo..$u7b$$u7b$closure$u7d$$u7d$..$u7b$$u7b$closure$u7d$$u7d$$C$alloc..string..String$GT$..$u7b$$u7b$closure$u7d$$u7d$$GT$17h977ce7648b1eb260E,@function
_ZN4core3ptr213drop_in_place$LT$std..thread..Builder..spawn_unchecked_$LT$rust_strengths_demo..threading_demo..$u7b$$u7b$closure$u7d$$u7d$..$u7b$$u7b$closure$u7d$$u7d$$C$alloc..string..String$GT$..$u7b$$u7b$closure$u7d$$u7d$$GT$17h977ce7648b1eb260E:
.Lfunc_begin31:
	.cfi_startproc
	.cfi_personality 155, DW.ref.rust_eh_personality
	.cfi_lsda 27, .Lexception31
	pushq	%r14
	.cfi_def_cfa_offset 16
	pushq	%rbx
	.cfi_def_cfa_offset 24
	pushq	%rax
	.cfi_def_cfa_offset 32
	.cfi_offset %rbx, -24
	.cfi_offset %r14, -16
	movq	%rdi, %rbx
	movq	32(%rdi), %rax
	lock		decq	(%rax)
	jne	.LBB65_2
	leaq	32(%rbx), %rdi
	#MEMBARRIER
.Ltmp418:
	callq	*_ZN5alloc4sync16Arc$LT$T$C$A$GT$9drop_slow17h0cfdd8536c45d5f7E@GOTPCREL(%rip)
.Ltmp419:
.LBB65_2:
.Ltmp423:
	movq	%rbx, %rdi
	callq	_ZN4core3ptr60drop_in_place$LT$std..thread..spawnhook..ChildSpawnHooks$GT$17h04e3f0c35efce032E
.Ltmp424:
	movq	40(%rbx), %rax
	lock		decq	(%rax)
	jne	.LBB65_10
	addq	$40, %rbx
	#MEMBARRIER
	movq	%rbx, %rdi
	addq	$8, %rsp
	.cfi_def_cfa_offset 24
	popq	%rbx
	.cfi_def_cfa_offset 16
	popq	%r14
	.cfi_def_cfa_offset 8
	jmp	_ZN5alloc4sync16Arc$LT$T$C$A$GT$9drop_slow17h7884c885dba4b3c3E
.LBB65_10:
	.cfi_def_cfa_offset 32
	addq	$8, %rsp
	.cfi_def_cfa_offset 24
	popq	%rbx
	.cfi_def_cfa_offset 16
	popq	%r14
	.cfi_def_cfa_offset 8
	retq
.LBB65_5:
	.cfi_def_cfa_offset 32
.Ltmp420:
	movq	%rax, %r14
.Ltmp421:
	movq	%rbx, %rdi
	callq	_ZN4core3ptr60drop_in_place$LT$std..thread..spawnhook..ChildSpawnHooks$GT$17h04e3f0c35efce032E
.Ltmp422:
	jmp	.LBB65_6
.LBB65_9:
.Ltmp425:
	movq	%rax, %r14
.LBB65_6:
	movq	40(%rbx), %rax
	lock		decq	(%rax)
	jne	.LBB65_8
	addq	$40, %rbx
	#MEMBARRIER
.Ltmp426:
	movq	%rbx, %rdi
	callq	_ZN5alloc4sync16Arc$LT$T$C$A$GT$9drop_slow17h7884c885dba4b3c3E
.Ltmp427:
.LBB65_8:
	movq	%r14, %rdi
	callq	_Unwind_Resume@PLT
.LBB65_11:
.Ltmp428:
	callq	*_ZN4core9panicking16panic_in_cleanup17h6f48b941993644b5E@GOTPCREL(%rip)
.Lfunc_end65:
	.size	_ZN4core3ptr213drop_in_place$LT$std..thread..Builder..spawn_unchecked_$LT$rust_strengths_demo..threading_demo..$u7b$$u7b$closure$u7d$$u7d$..$u7b$$u7b$closure$u7d$$u7d$$C$alloc..string..String$GT$..$u7b$$u7b$closure$u7d$$u7d$$GT$17h977ce7648b1eb260E, .Lfunc_end65-_ZN4core3ptr213drop_in_place$LT$std..thread..Builder..spawn_unchecked_$LT$rust_strengths_demo..threading_demo..$u7b$$u7b$closure$u7d$$u7d$..$u7b$$u7b$closure$u7d$$u7d$$C$alloc..string..String$GT$..$u7b$$u7b$closure$u7d$$u7d$$GT$17h977ce7648b1eb260E
	.cfi_endproc
	.section	".gcc_except_table._ZN4core3ptr213drop_in_place$LT$std..thread..Builder..spawn_unchecked_$LT$rust_strengths_demo..threading_demo..$u7b$$u7b$closure$u7d$$u7d$..$u7b$$u7b$closure$u7d$$u7d$$C$alloc..string..String$GT$..$u7b$$u7b$closure$u7d$$u7d$$GT$17h977ce7648b1eb260E","a",@progbits
	.p2align	2, 0x0
GCC_except_table65:
.Lexception31:
	.byte	255
	.byte	155
	.uleb128 .Lttbase23-.Lttbaseref23
.Lttbaseref23:
	.byte	1
	.uleb128 .Lcst_end31-.Lcst_begin31
.Lcst_begin31:
	.uleb128 .Ltmp418-.Lfunc_begin31
	.uleb128 .Ltmp419-.Ltmp418
	.uleb128 .Ltmp420-.Lfunc_begin31
	.byte	0
	.uleb128 .Ltmp423-.Lfunc_begin31
	.uleb128 .Ltmp424-.Ltmp423
	.uleb128 .Ltmp425-.Lfunc_begin31
	.byte	0
	.uleb128 .Ltmp424-.Lfunc_begin31
	.uleb128 .Ltmp421-.Ltmp424
	.byte	0
	.byte	0
	.uleb128 .Ltmp421-.Lfunc_begin31
	.uleb128 .Ltmp427-.Ltmp421
	.uleb128 .Ltmp428-.Lfunc_begin31
	.byte	1
	.uleb128 .Ltmp427-.Lfunc_begin31
	.uleb128 .Lfunc_end65-.Ltmp427
	.byte	0
	.byte	0
.Lcst_end31:
	.byte	127
	.byte	0
	.p2align	2, 0x0
.Lttbase23:
	.byte	0
	.p2align	2, 0x0

	.section	".text._ZN4core3ptr284drop_in_place$LT$rayon_core..job..JobResult$LT$$LP$alloc..collections..linked_list..LinkedList$LT$alloc..vec..Vec$LT$$LP$alloc..string..String$C$f64$RP$$GT$$GT$$C$alloc..collections..linked_list..LinkedList$LT$alloc..vec..Vec$LT$$LP$alloc..string..String$C$f64$RP$$GT$$GT$$RP$$GT$$GT$17h326ee28ce1f5fe41E","ax",@progbits
	.p2align	4
	.type	_ZN4core3ptr284drop_in_place$LT$rayon_core..job..JobResult$LT$$LP$alloc..collections..linked_list..LinkedList$LT$alloc..vec..Vec$LT$$LP$alloc..string..String$C$f64$RP$$GT$$GT$$C$alloc..collections..linked_list..LinkedList$LT$alloc..vec..Vec$LT$$LP$alloc..string..String$C$f64$RP$$GT$$GT$$RP$$GT$$GT$17h326ee28ce1f5fe41E,@function
_ZN4core3ptr284drop_in_place$LT$rayon_core..job..JobResult$LT$$LP$alloc..collections..linked_list..LinkedList$LT$alloc..vec..Vec$LT$$LP$alloc..string..String$C$f64$RP$$GT$$GT$$C$alloc..collections..linked_list..LinkedList$LT$alloc..vec..Vec$LT$$LP$alloc..string..String$C$f64$RP$$GT$$GT$$RP$$GT$$GT$17h326ee28ce1f5fe41E:
.Lfunc_begin32:
	.cfi_startproc
	.cfi_personality 155, DW.ref.rust_eh_personality
	.cfi_lsda 27, .Lexception32
	pushq	%rbp
	.cfi_def_cfa_offset 16
	pushq	%r15
	.cfi_def_cfa_offset 24
	pushq	%r14
	.cfi_def_cfa_offset 32
	pushq	%r13
	.cfi_def_cfa_offset 40
	pushq	%r12
	.cfi_def_cfa_offset 48
	pushq	%rbx
	.cfi_def_cfa_offset 56
	subq	$24, %rsp
	.cfi_def_cfa_offset 80
	.cfi_offset %rbx, -56
	.cfi_offset %r12, -48
	.cfi_offset %r13, -40
	.cfi_offset %r14, -32
	.cfi_offset %r15, -24
	.cfi_offset %rbp, -16
	movq	(%rdi), %rax
	testq	%rax, %rax
	je	.LBB66_35
	cmpl	$1, %eax
	jne	.LBB66_2
	movq	8(%rdi), %r14
	testq	%r14, %r14
	movq	%rdi, 16(%rsp)
	je	.LBB66_22
	movq	24(%rdi), %rax
	movq	_RNvCsb3o7Y5DtQ0O_7___rustc14___rust_dealloc@GOTPCREL(%rip), %r13
	jmp	.LBB66_11
	.p2align	4
.LBB66_21:
	movl	$40, %esi
	movl	$8, %edx
	movq	%r14, %rdi
	callq	*%r13
	movq	%rbp, %r14
	testq	%rbp, %rbp
	movq	16(%rsp), %rdi
	movq	8(%rsp), %rax
	je	.LBB66_22
.LBB66_11:
	movq	24(%r14), %rbp
	movq	%rbp, 8(%rdi)
	testq	%rbp, %rbp
	je	.LBB66_13
	movq	$0, 32(%rbp)
	jmp	.LBB66_14
	.p2align	4
.LBB66_13:
	movq	$0, 16(%rdi)
.LBB66_14:
	decq	%rax
	movq	%rax, 8(%rsp)
	movq	%rax, 24(%rdi)
	movq	8(%r14), %r15
	movq	16(%r14), %rbx
	testq	%rbx, %rbx
	je	.LBB66_19
	leaq	8(%r15), %r12
	jmp	.LBB66_16
	.p2align	4
.LBB66_18:
	addq	$32, %r12
	decq	%rbx
	je	.LBB66_19
.LBB66_16:
	movq	-8(%r12), %rsi
	testq	%rsi, %rsi
	je	.LBB66_18
	movq	(%r12), %rdi
	movl	$1, %edx
	callq	*%r13
	jmp	.LBB66_18
	.p2align	4
.LBB66_19:
	movq	(%r14), %rsi
	testq	%rsi, %rsi
	je	.LBB66_21
	shlq	$5, %rsi
	movl	$8, %edx
	movq	%r15, %rdi
	callq	*%r13
	jmp	.LBB66_21
.LBB66_22:
	movq	32(%rdi), %r14
	testq	%r14, %r14
	je	.LBB66_35
	movq	48(%rdi), %rax
	movq	_RNvCsb3o7Y5DtQ0O_7___rustc14___rust_dealloc@GOTPCREL(%rip), %r13
	jmp	.LBB66_24
	.p2align	4
.LBB66_34:
	movl	$40, %esi
	movl	$8, %edx
	movq	%r14, %rdi
	callq	*%r13
	movq	%rbp, %r14
	testq	%rbp, %rbp
	movq	16(%rsp), %rdi
	movq	8(%rsp), %rax
	je	.LBB66_35
.LBB66_24:
	movq	24(%r14), %rbp
	movq	%rbp, 32(%rdi)
	testq	%rbp, %rbp
	je	.LBB66_26
	movq	$0, 32(%rbp)
	jmp	.LBB66_27
	.p2align	4
.LBB66_26:
	movq	$0, 40(%rdi)
.LBB66_27:
	decq	%rax
	movq	%rax, 8(%rsp)
	movq	%rax, 48(%rdi)
	movq	8(%r14), %r15
	movq	16(%r14), %rbx
	testq	%rbx, %rbx
	je	.LBB66_32
	leaq	8(%r15), %r12
	jmp	.LBB66_29
	.p2align	4
.LBB66_31:
	addq	$32, %r12
	decq	%rbx
	je	.LBB66_32
.LBB66_29:
	movq	-8(%r12), %rsi
	testq	%rsi, %rsi
	je	.LBB66_31
	movq	(%r12), %rdi
	movl	$1, %edx
	callq	*%r13
	jmp	.LBB66_31
	.p2align	4
.LBB66_32:
	movq	(%r14), %rsi
	testq	%rsi, %rsi
	je	.LBB66_34
	shlq	$5, %rsi
	movl	$8, %edx
	movq	%r15, %rdi
	callq	*%r13
	jmp	.LBB66_34
.LBB66_2:
	movq	8(%rdi), %r14
	movq	16(%rdi), %r15
	movq	(%r15), %rax
	testq	%rax, %rax
	je	.LBB66_4
.Ltmp429:
	movq	%r14, %rdi
	callq	*%rax
.Ltmp430:
.LBB66_4:
	movq	8(%r15), %rsi
	testq	%rsi, %rsi
	je	.LBB66_35
	movq	16(%r15), %rdx
	movq	%r14, %rdi
	addq	$24, %rsp
	.cfi_def_cfa_offset 56
	popq	%rbx
	.cfi_def_cfa_offset 48
	popq	%r12
	.cfi_def_cfa_offset 40
	popq	%r13
	.cfi_def_cfa_offset 32
	popq	%r14
	.cfi_def_cfa_offset 24
	popq	%r15
	.cfi_def_cfa_offset 16
	popq	%rbp
	.cfi_def_cfa_offset 8
	jmpq	*_RNvCsb3o7Y5DtQ0O_7___rustc14___rust_dealloc@GOTPCREL(%rip)
.LBB66_35:
	.cfi_def_cfa_offset 80
	addq	$24, %rsp
	.cfi_def_cfa_offset 56
	popq	%rbx
	.cfi_def_cfa_offset 48
	popq	%r12
	.cfi_def_cfa_offset 40
	popq	%r13
	.cfi_def_cfa_offset 32
	popq	%r14
	.cfi_def_cfa_offset 24
	popq	%r15
	.cfi_def_cfa_offset 16
	popq	%rbp
	.cfi_def_cfa_offset 8
	retq
.LBB66_6:
	.cfi_def_cfa_offset 80
.Ltmp431:
	movq	%rax, %rbx
	movq	8(%r15), %rsi
	testq	%rsi, %rsi
	je	.LBB66_8
	movq	16(%r15), %rdx
	movq	%r14, %rdi
	callq	*_RNvCsb3o7Y5DtQ0O_7___rustc14___rust_dealloc@GOTPCREL(%rip)
.LBB66_8:
	movq	%rbx, %rdi
	callq	_Unwind_Resume@PLT
.Lfunc_end66:
	.size	_ZN4core3ptr284drop_in_place$LT$rayon_core..job..JobResult$LT$$LP$alloc..collections..linked_list..LinkedList$LT$alloc..vec..Vec$LT$$LP$alloc..string..String$C$f64$RP$$GT$$GT$$C$alloc..collections..linked_list..LinkedList$LT$alloc..vec..Vec$LT$$LP$alloc..string..String$C$f64$RP$$GT$$GT$$RP$$GT$$GT$17h326ee28ce1f5fe41E, .Lfunc_end66-_ZN4core3ptr284drop_in_place$LT$rayon_core..job..JobResult$LT$$LP$alloc..collections..linked_list..LinkedList$LT$alloc..vec..Vec$LT$$LP$alloc..string..String$C$f64$RP$$GT$$GT$$C$alloc..collections..linked_list..LinkedList$LT$alloc..vec..Vec$LT$$LP$alloc..string..String$C$f64$RP$$GT$$GT$$RP$$GT$$GT$17h326ee28ce1f5fe41E
	.cfi_endproc
	.section	".gcc_except_table._ZN4core3ptr284drop_in_place$LT$rayon_core..job..JobResult$LT$$LP$alloc..collections..linked_list..LinkedList$LT$alloc..vec..Vec$LT$$LP$alloc..string..String$C$f64$RP$$GT$$GT$$C$alloc..collections..linked_list..LinkedList$LT$alloc..vec..Vec$LT$$LP$alloc..string..String$C$f64$RP$$GT$$GT$$RP$$GT$$GT$17h326ee28ce1f5fe41E","a",@progbits
	.p2align	2, 0x0
GCC_except_table66:
.Lexception32:
	.byte	255
	.byte	255
	.byte	1
	.uleb128 .Lcst_end32-.Lcst_begin32
.Lcst_begin32:
	.uleb128 .Lfunc_begin32-.Lfunc_begin32
	.uleb128 .Ltmp429-.Lfunc_begin32
	.byte	0
	.byte	0
	.uleb128 .Ltmp429-.Lfunc_begin32
	.uleb128 .Ltmp430-.Ltmp429
	.uleb128 .Ltmp431-.Lfunc_begin32
	.byte	0
	.uleb128 .Ltmp430-.Lfunc_begin32
	.uleb128 .Lfunc_end66-.Ltmp430
	.byte	0
	.byte	0
.Lcst_end32:
	.p2align	2, 0x0

	.section	".text._ZN4core3ptr286drop_in_place$LT$core..iter..adapters..map..Map$LT$core..iter..adapters..flatten..Flatten$LT$alloc..vec..into_iter..IntoIter$LT$alloc..vec..Vec$LT$clap_builder..util..any_value..AnyValue$GT$$GT$$GT$$C$clap_builder..parser..matches..arg_matches..unwrap_downcast_into$LT$usize$GT$$GT$$GT$17h943cd4e846e506e5E","ax",@progbits
	.p2align	4
	.type	_ZN4core3ptr286drop_in_place$LT$core..iter..adapters..map..Map$LT$core..iter..adapters..flatten..Flatten$LT$alloc..vec..into_iter..IntoIter$LT$alloc..vec..Vec$LT$clap_builder..util..any_value..AnyValue$GT$$GT$$GT$$C$clap_builder..parser..matches..arg_matches..unwrap_downcast_into$LT$usize$GT$$GT$$GT$17h943cd4e846e506e5E,@function
_ZN4core3ptr286drop_in_place$LT$core..iter..adapters..map..Map$LT$core..iter..adapters..flatten..Flatten$LT$alloc..vec..into_iter..IntoIter$LT$alloc..vec..Vec$LT$clap_builder..util..any_value..AnyValue$GT$$GT$$GT$$C$clap_builder..parser..matches..arg_matches..unwrap_downcast_into$LT$usize$GT$$GT$$GT$17h943cd4e846e506e5E:
.Lfunc_begin33:
	.cfi_startproc
	.cfi_personality 155, DW.ref.rust_eh_personality
	.cfi_lsda 27, .Lexception33
	pushq	%rbp
	.cfi_def_cfa_offset 16
	pushq	%r15
	.cfi_def_cfa_offset 24
	pushq	%r14
	.cfi_def_cfa_offset 32
	pushq	%r13
	.cfi_def_cfa_offset 40
	pushq	%r12
	.cfi_def_cfa_offset 48
	pushq	%rbx
	.cfi_def_cfa_offset 56
	pushq	%rax
	.cfi_def_cfa_offset 64
	.cfi_offset %rbx, -56
	.cfi_offset %r12, -48
	.cfi_offset %r13, -40
	.cfi_offset %r14, -32
	.cfi_offset %r15, -24
	.cfi_offset %rbp, -16
	movq	%rdi, %rbx
	movq	(%rdi), %r14
	testq	%r14, %r14
	je	.LBB67_15
	movq	8(%rbx), %rdi
	movq	24(%rbx), %rax
	subq	%rdi, %rax
	shrq	$3, %rax
	movabsq	$-6148914691236517205, %r13
	imulq	%rax, %r13
	incq	%r13
	.p2align	4
.LBB67_2:
	cmpq	$1, %r13
	je	.LBB67_13
	leaq	24(%rdi), %r12
	decq	%r13
.Ltmp432:
	callq	_ZN4core3ptr83drop_in_place$LT$alloc..vec..Vec$LT$clap_builder..util..any_value..AnyValue$GT$$GT$17hdc4d90d2f2db2289E
.Ltmp433:
	movq	%r12, %rdi
	jmp	.LBB67_2
.LBB67_13:
	movq	16(%rbx), %rax
	testq	%rax, %rax
	je	.LBB67_15
	shlq	$3, %rax
	leaq	(%rax,%rax,2), %rsi
	movl	$8, %edx
	movq	%r14, %rdi
	callq	*_RNvCsb3o7Y5DtQ0O_7___rustc14___rust_dealloc@GOTPCREL(%rip)
.LBB67_15:
	leaq	32(%rbx), %rdi
.Ltmp440:
	callq	_ZN4core3ptr127drop_in_place$LT$core..option..Option$LT$alloc..vec..into_iter..IntoIter$LT$clap_builder..util..any_value..AnyValue$GT$$GT$$GT$17hce4266d3a9b81bc2E
.Ltmp441:
	addq	$64, %rbx
	movq	%rbx, %rdi
	addq	$8, %rsp
	.cfi_def_cfa_offset 56
	popq	%rbx
	.cfi_def_cfa_offset 48
	popq	%r12
	.cfi_def_cfa_offset 40
	popq	%r13
	.cfi_def_cfa_offset 32
	popq	%r14
	.cfi_def_cfa_offset 24
	popq	%r15
	.cfi_def_cfa_offset 16
	popq	%rbp
	.cfi_def_cfa_offset 8
	jmp	_ZN4core3ptr127drop_in_place$LT$core..option..Option$LT$alloc..vec..into_iter..IntoIter$LT$clap_builder..util..any_value..AnyValue$GT$$GT$$GT$17hce4266d3a9b81bc2E
.LBB67_17:
	.cfi_def_cfa_offset 64
.Ltmp442:
	movq	%rax, %r15
	jmp	.LBB67_7
.LBB67_9:
.Ltmp434:
	movq	%rax, %r15
	.p2align	4
.LBB67_10:
	decq	%r13
	je	.LBB67_4
.Ltmp435:
	leaq	24(%r12), %rbp
	movq	%r12, %rdi
	callq	_ZN4core3ptr83drop_in_place$LT$alloc..vec..Vec$LT$clap_builder..util..any_value..AnyValue$GT$$GT$17hdc4d90d2f2db2289E
.Ltmp436:
	movq	%rbp, %r12
	jmp	.LBB67_10
.LBB67_4:
	movq	16(%rbx), %rax
	testq	%rax, %rax
	je	.LBB67_6
	shlq	$3, %rax
	leaq	(%rax,%rax,2), %rsi
	movl	$8, %edx
	movq	%r14, %rdi
	callq	*_RNvCsb3o7Y5DtQ0O_7___rustc14___rust_dealloc@GOTPCREL(%rip)
.LBB67_6:
	leaq	32(%rbx), %rdi
.Ltmp438:
	callq	_ZN4core3ptr127drop_in_place$LT$core..option..Option$LT$alloc..vec..into_iter..IntoIter$LT$clap_builder..util..any_value..AnyValue$GT$$GT$$GT$17hce4266d3a9b81bc2E
.Ltmp439:
.LBB67_7:
	addq	$64, %rbx
.Ltmp443:
	movq	%rbx, %rdi
	callq	_ZN4core3ptr127drop_in_place$LT$core..option..Option$LT$alloc..vec..into_iter..IntoIter$LT$clap_builder..util..any_value..AnyValue$GT$$GT$$GT$17hce4266d3a9b81bc2E
.Ltmp444:
	movq	%r15, %rdi
	callq	_Unwind_Resume@PLT
.LBB67_18:
.Ltmp445:
	callq	*_ZN4core9panicking16panic_in_cleanup17h6f48b941993644b5E@GOTPCREL(%rip)
.LBB67_12:
.Ltmp437:
	callq	*_ZN4core9panicking16panic_in_cleanup17h6f48b941993644b5E@GOTPCREL(%rip)
.Lfunc_end67:
	.size	_ZN4core3ptr286drop_in_place$LT$core..iter..adapters..map..Map$LT$core..iter..adapters..flatten..Flatten$LT$alloc..vec..into_iter..IntoIter$LT$alloc..vec..Vec$LT$clap_builder..util..any_value..AnyValue$GT$$GT$$GT$$C$clap_builder..parser..matches..arg_matches..unwrap_downcast_into$LT$usize$GT$$GT$$GT$17h943cd4e846e506e5E, .Lfunc_end67-_ZN4core3ptr286drop_in_place$LT$core..iter..adapters..map..Map$LT$core..iter..adapters..flatten..Flatten$LT$alloc..vec..into_iter..IntoIter$LT$alloc..vec..Vec$LT$clap_builder..util..any_value..AnyValue$GT$$GT$$GT$$C$clap_builder..parser..matches..arg_matches..unwrap_downcast_into$LT$usize$GT$$GT$$GT$17h943cd4e846e506e5E
	.cfi_endproc
	.section	".gcc_except_table._ZN4core3ptr286drop_in_place$LT$core..iter..adapters..map..Map$LT$core..iter..adapters..flatten..Flatten$LT$alloc..vec..into_iter..IntoIter$LT$alloc..vec..Vec$LT$clap_builder..util..any_value..AnyValue$GT$$GT$$GT$$C$clap_builder..parser..matches..arg_matches..unwrap_downcast_into$LT$usize$GT$$GT$$GT$17h943cd4e846e506e5E","a",@progbits
	.p2align	2, 0x0
GCC_except_table67:
.Lexception33:
	.byte	255
	.byte	155
	.uleb128 .Lttbase24-.Lttbaseref24
.Lttbaseref24:
	.byte	1
	.uleb128 .Lcst_end33-.Lcst_begin33
.Lcst_begin33:
	.uleb128 .Ltmp432-.Lfunc_begin33
	.uleb128 .Ltmp433-.Ltmp432
	.uleb128 .Ltmp434-.Lfunc_begin33
	.byte	0
	.uleb128 .Ltmp440-.Lfunc_begin33
	.uleb128 .Ltmp441-.Ltmp440
	.uleb128 .Ltmp442-.Lfunc_begin33
	.byte	0
	.uleb128 .Ltmp441-.Lfunc_begin33
	.uleb128 .Ltmp435-.Ltmp441
	.byte	0
	.byte	0
	.uleb128 .Ltmp435-.Lfunc_begin33
	.uleb128 .Ltmp436-.Ltmp435
	.uleb128 .Ltmp437-.Lfunc_begin33
	.byte	1
	.uleb128 .Ltmp438-.Lfunc_begin33
	.uleb128 .Ltmp444-.Ltmp438
	.uleb128 .Ltmp445-.Lfunc_begin33
	.byte	1
	.uleb128 .Ltmp444-.Lfunc_begin33
	.uleb128 .Lfunc_end67-.Ltmp444
	.byte	0
	.byte	0
.Lcst_end33:
	.byte	127
	.byte	0
	.p2align	2, 0x0
.Lttbase24:
	.byte	0
	.p2align	2, 0x0

	.section	".text._ZN4core3ptr307drop_in_place$LT$core..result..Result$LT$std..sync..poison..mutex..MutexGuard$LT$core..option..Option$LT$rust_strengths_demo..ProcessingError$GT$$GT$$C$std..sync..poison..TryLockError$LT$std..sync..poison..mutex..MutexGuard$LT$core..option..Option$LT$rust_strengths_demo..ProcessingError$GT$$GT$$GT$$GT$$GT$17h6bce9896227e0beeE","ax",@progbits
	.p2align	4
	.type	_ZN4core3ptr307drop_in_place$LT$core..result..Result$LT$std..sync..poison..mutex..MutexGuard$LT$core..option..Option$LT$rust_strengths_demo..ProcessingError$GT$$GT$$C$std..sync..poison..TryLockError$LT$std..sync..poison..mutex..MutexGuard$LT$core..option..Option$LT$rust_strengths_demo..ProcessingError$GT$$GT$$GT$$GT$$GT$17h6bce9896227e0beeE,@function
_ZN4core3ptr307drop_in_place$LT$core..result..Result$LT$std..sync..poison..mutex..MutexGuard$LT$core..option..Option$LT$rust_strengths_demo..ProcessingError$GT$$GT$$C$std..sync..poison..TryLockError$LT$std..sync..poison..mutex..MutexGuard$LT$core..option..Option$LT$rust_strengths_demo..ProcessingError$GT$$GT$$GT$$GT$$GT$17h6bce9896227e0beeE:
	.cfi_startproc
	pushq	%rbx
	.cfi_def_cfa_offset 16
	.cfi_offset %rbx, -16
	movq	8(%rdi), %rbx
	movzbl	16(%rdi), %eax
	testb	$1, (%rdi)
	je	.LBB68_2
	cmpb	$2, %al
	je	.LBB68_7
.LBB68_2:
	testb	$1, %al
	jne	.LBB68_6
	movq	_ZN3std9panicking11panic_count18GLOBAL_PANIC_COUNT17h6b73b4a44f7b7da6E@GOTPCREL(%rip), %rax
	movq	(%rax), %rax
	shlq	%rax
	testq	%rax, %rax
	jne	.LBB68_4
.LBB68_6:
	xorl	%eax, %eax
	xchgl	%eax, (%rbx)
	cmpl	$2, %eax
	je	.LBB68_8
.LBB68_7:
	popq	%rbx
	.cfi_def_cfa_offset 8
	retq
.LBB68_8:
	.cfi_def_cfa_offset 16
	movq	%rbx, %rdi
	popq	%rbx
	.cfi_def_cfa_offset 8
	jmpq	*_ZN3std3sys4sync5mutex5futex5Mutex4wake17h01da496fd8ff9537E@GOTPCREL(%rip)
.LBB68_4:
	.cfi_def_cfa_offset 16
	callq	*_ZN3std9panicking11panic_count17is_zero_slow_path17he616e583ae2cd51bE@GOTPCREL(%rip)
	testb	%al, %al
	jne	.LBB68_6
	movb	$1, 4(%rbx)
	jmp	.LBB68_6
.Lfunc_end68:
	.size	_ZN4core3ptr307drop_in_place$LT$core..result..Result$LT$std..sync..poison..mutex..MutexGuard$LT$core..option..Option$LT$rust_strengths_demo..ProcessingError$GT$$GT$$C$std..sync..poison..TryLockError$LT$std..sync..poison..mutex..MutexGuard$LT$core..option..Option$LT$rust_strengths_demo..ProcessingError$GT$$GT$$GT$$GT$$GT$17h6bce9896227e0beeE, .Lfunc_end68-_ZN4core3ptr307drop_in_place$LT$core..result..Result$LT$std..sync..poison..mutex..MutexGuard$LT$core..option..Option$LT$rust_strengths_demo..ProcessingError$GT$$GT$$C$std..sync..poison..TryLockError$LT$std..sync..poison..mutex..MutexGuard$LT$core..option..Option$LT$rust_strengths_demo..ProcessingError$GT$$GT$$GT$$GT$$GT$17h6bce9896227e0beeE
	.cfi_endproc

	.section	".text._ZN4core3ptr38drop_in_place$LT$clap_lex..RawArgs$GT$17hfce078c4e65315fdE","ax",@progbits
	.p2align	4
	.type	_ZN4core3ptr38drop_in_place$LT$clap_lex..RawArgs$GT$17hfce078c4e65315fdE,@function
_ZN4core3ptr38drop_in_place$LT$clap_lex..RawArgs$GT$17hfce078c4e65315fdE:
	.cfi_startproc
	pushq	%r15
	.cfi_def_cfa_offset 16
	pushq	%r14
	.cfi_def_cfa_offset 24
	pushq	%r13
	.cfi_def_cfa_offset 32
	pushq	%r12
	.cfi_def_cfa_offset 40
	pushq	%rbx
	.cfi_def_cfa_offset 48
	.cfi_offset %rbx, -48
	.cfi_offset %r12, -40
	.cfi_offset %r13, -32
	.cfi_offset %r14, -24
	.cfi_offset %r15, -16
	movq	%rdi, %r14
	movq	8(%rdi), %rbx
	movq	16(%rdi), %r15
	testq	%r15, %r15
	je	.LBB69_5
	leaq	8(%rbx), %r12
	movq	_RNvCsb3o7Y5DtQ0O_7___rustc14___rust_dealloc@GOTPCREL(%rip), %r13
	jmp	.LBB69_2
	.p2align	4
.LBB69_4:
	addq	$24, %r12
	decq	%r15
	je	.LBB69_5
.LBB69_2:
	movq	-8(%r12), %rsi
	testq	%rsi, %rsi
	je	.LBB69_4
	movq	(%r12), %rdi
	movl	$1, %edx
	callq	*%r13
	jmp	.LBB69_4
.LBB69_5:
	movq	(%r14), %rax
	testq	%rax, %rax
	je	.LBB69_6
	shlq	$3, %rax
	leaq	(%rax,%rax,2), %rsi
	movl	$8, %edx
	movq	%rbx, %rdi
	popq	%rbx
	.cfi_def_cfa_offset 40
	popq	%r12
	.cfi_def_cfa_offset 32
	popq	%r13
	.cfi_def_cfa_offset 24
	popq	%r14
	.cfi_def_cfa_offset 16
	popq	%r15
	.cfi_def_cfa_offset 8
	jmpq	*_RNvCsb3o7Y5DtQ0O_7___rustc14___rust_dealloc@GOTPCREL(%rip)
.LBB69_6:
	.cfi_def_cfa_offset 48
	popq	%rbx
	.cfi_def_cfa_offset 40
	popq	%r12
	.cfi_def_cfa_offset 32
	popq	%r13
	.cfi_def_cfa_offset 24
	popq	%r14
	.cfi_def_cfa_offset 16
	popq	%r15
	.cfi_def_cfa_offset 8
	retq
.Lfunc_end69:
	.size	_ZN4core3ptr38drop_in_place$LT$clap_lex..RawArgs$GT$17hfce078c4e65315fdE, .Lfunc_end69-_ZN4core3ptr38drop_in_place$LT$clap_lex..RawArgs$GT$17hfce078c4e65315fdE
	.cfi_endproc

	.section	".text._ZN4core3ptr42drop_in_place$LT$alloc..string..String$GT$17h4414539cd083e961E","ax",@progbits
	.p2align	4
	.type	_ZN4core3ptr42drop_in_place$LT$alloc..string..String$GT$17h4414539cd083e961E,@function
_ZN4core3ptr42drop_in_place$LT$alloc..string..String$GT$17h4414539cd083e961E:
	.cfi_startproc
	movq	(%rdi), %rsi
	testq	%rsi, %rsi
	je	.LBB70_1
	movq	8(%rdi), %rdi
	movl	$1, %edx
	jmpq	*_RNvCsb3o7Y5DtQ0O_7___rustc14___rust_dealloc@GOTPCREL(%rip)
.LBB70_1:
	retq
.Lfunc_end70:
	.size	_ZN4core3ptr42drop_in_place$LT$alloc..string..String$GT$17h4414539cd083e961E, .Lfunc_end70-_ZN4core3ptr42drop_in_place$LT$alloc..string..String$GT$17h4414539cd083e961E
	.cfi_endproc

	.section	".text._ZN4core3ptr42drop_in_place$LT$std..io..error..Error$GT$17hb5a2048f539dab14E","ax",@progbits
	.p2align	4
	.type	_ZN4core3ptr42drop_in_place$LT$std..io..error..Error$GT$17hb5a2048f539dab14E,@function
_ZN4core3ptr42drop_in_place$LT$std..io..error..Error$GT$17hb5a2048f539dab14E:
.Lfunc_begin34:
	.cfi_startproc
	.cfi_personality 155, DW.ref.rust_eh_personality
	.cfi_lsda 27, .Lexception34
	pushq	%r15
	.cfi_def_cfa_offset 16
	pushq	%r14
	.cfi_def_cfa_offset 24
	pushq	%r12
	.cfi_def_cfa_offset 32
	pushq	%rbx
	.cfi_def_cfa_offset 40
	pushq	%rax
	.cfi_def_cfa_offset 48
	.cfi_offset %rbx, -40
	.cfi_offset %r12, -32
	.cfi_offset %r14, -24
	.cfi_offset %r15, -16
	movq	(%rdi), %rax
	movl	%eax, %ecx
	andl	$3, %ecx
	cmpl	$1, %ecx
	je	.LBB71_1
	addq	$8, %rsp
	.cfi_def_cfa_offset 40
	popq	%rbx
	.cfi_def_cfa_offset 32
	popq	%r12
	.cfi_def_cfa_offset 24
	popq	%r14
	.cfi_def_cfa_offset 16
	popq	%r15
	.cfi_def_cfa_offset 8
	retq
.LBB71_1:
	.cfi_def_cfa_offset 48
	leaq	-1(%rax), %rbx
	movq	-1(%rax), %r14
	movq	7(%rax), %r12
	movq	(%r12), %rax
	testq	%rax, %rax
	je	.LBB71_3
.Ltmp446:
	movq	%r14, %rdi
	callq	*%rax
.Ltmp447:
.LBB71_3:
	movq	8(%r12), %rsi
	testq	%rsi, %rsi
	je	.LBB71_5
	movq	16(%r12), %rdx
	movq	%r14, %rdi
	callq	*_RNvCsb3o7Y5DtQ0O_7___rustc14___rust_dealloc@GOTPCREL(%rip)
.LBB71_5:
	movl	$24, %esi
	movl	$8, %edx
	movq	%rbx, %rdi
	addq	$8, %rsp
	.cfi_def_cfa_offset 40
	popq	%rbx
	.cfi_def_cfa_offset 32
	popq	%r12
	.cfi_def_cfa_offset 24
	popq	%r14
	.cfi_def_cfa_offset 16
	popq	%r15
	.cfi_def_cfa_offset 8
	jmpq	*_RNvCsb3o7Y5DtQ0O_7___rustc14___rust_dealloc@GOTPCREL(%rip)
.LBB71_6:
	.cfi_def_cfa_offset 48
.Ltmp448:
	movq	%rax, %r15
	movq	8(%r12), %rsi
	testq	%rsi, %rsi
	je	.LBB71_8
	movq	16(%r12), %rdx
	movq	%r14, %rdi
	callq	*_RNvCsb3o7Y5DtQ0O_7___rustc14___rust_dealloc@GOTPCREL(%rip)
.LBB71_8:
	movl	$24, %esi
	movl	$8, %edx
	movq	%rbx, %rdi
	callq	*_RNvCsb3o7Y5DtQ0O_7___rustc14___rust_dealloc@GOTPCREL(%rip)
	movq	%r15, %rdi
	callq	_Unwind_Resume@PLT
.Lfunc_end71:
	.size	_ZN4core3ptr42drop_in_place$LT$std..io..error..Error$GT$17hb5a2048f539dab14E, .Lfunc_end71-_ZN4core3ptr42drop_in_place$LT$std..io..error..Error$GT$17hb5a2048f539dab14E
	.cfi_endproc
	.section	".gcc_except_table._ZN4core3ptr42drop_in_place$LT$std..io..error..Error$GT$17hb5a2048f539dab14E","a",@progbits
	.p2align	2, 0x0
GCC_except_table71:
.Lexception34:
	.byte	255
	.byte	255
	.byte	1
	.uleb128 .Lcst_end34-.Lcst_begin34
.Lcst_begin34:
	.uleb128 .Ltmp446-.Lfunc_begin34
	.uleb128 .Ltmp447-.Ltmp446
	.uleb128 .Ltmp448-.Lfunc_begin34
	.byte	0
	.uleb128 .Ltmp447-.Lfunc_begin34
	.uleb128 .Lfunc_end71-.Ltmp447
	.byte	0
	.byte	0
.Lcst_end34:
	.p2align	2, 0x0

	.section	".text._ZN4core3ptr47drop_in_place$LT$clap_builder..error..Error$GT$17hed590fa14dfddc8aE","ax",@progbits
	.p2align	4
	.type	_ZN4core3ptr47drop_in_place$LT$clap_builder..error..Error$GT$17hed590fa14dfddc8aE,@function
_ZN4core3ptr47drop_in_place$LT$clap_builder..error..Error$GT$17hed590fa14dfddc8aE:
.Lfunc_begin35:
	.cfi_startproc
	.cfi_personality 155, DW.ref.rust_eh_personality
	.cfi_lsda 27, .Lexception35
	pushq	%r14
	.cfi_def_cfa_offset 16
	pushq	%rbx
	.cfi_def_cfa_offset 24
	pushq	%rax
	.cfi_def_cfa_offset 32
	.cfi_offset %rbx, -24
	.cfi_offset %r14, -16
	movq	%rdi, %rbx
.Ltmp449:
	callq	_ZN4core3ptr52drop_in_place$LT$clap_builder..error..ErrorInner$GT$17h3ac7f11ec490aa7cE
.Ltmp450:
	movl	$256, %esi
	movl	$8, %edx
	movq	%rbx, %rdi
	addq	$8, %rsp
	.cfi_def_cfa_offset 24
	popq	%rbx
	.cfi_def_cfa_offset 16
	popq	%r14
	.cfi_def_cfa_offset 8
	jmpq	*_RNvCsb3o7Y5DtQ0O_7___rustc14___rust_dealloc@GOTPCREL(%rip)
.LBB72_2:
	.cfi_def_cfa_offset 32
.Ltmp451:
	movq	%rax, %r14
	movl	$256, %esi
	movl	$8, %edx
	movq	%rbx, %rdi
	callq	*_RNvCsb3o7Y5DtQ0O_7___rustc14___rust_dealloc@GOTPCREL(%rip)
	movq	%r14, %rdi
	callq	_Unwind_Resume@PLT
.Lfunc_end72:
	.size	_ZN4core3ptr47drop_in_place$LT$clap_builder..error..Error$GT$17hed590fa14dfddc8aE, .Lfunc_end72-_ZN4core3ptr47drop_in_place$LT$clap_builder..error..Error$GT$17hed590fa14dfddc8aE
	.cfi_endproc
	.section	".gcc_except_table._ZN4core3ptr47drop_in_place$LT$clap_builder..error..Error$GT$17hed590fa14dfddc8aE","a",@progbits
	.p2align	2, 0x0
GCC_except_table72:
.Lexception35:
	.byte	255
	.byte	255
	.byte	1
	.uleb128 .Lcst_end35-.Lcst_begin35
.Lcst_begin35:
	.uleb128 .Ltmp449-.Lfunc_begin35
	.uleb128 .Ltmp450-.Ltmp449
	.uleb128 .Ltmp451-.Lfunc_begin35
	.byte	0
	.uleb128 .Ltmp450-.Lfunc_begin35
	.uleb128 .Lfunc_end72-.Ltmp450
	.byte	0
	.byte	0
.Lcst_end35:
	.p2align	2, 0x0

	.section	".text._ZN4core3ptr50drop_in_place$LT$crossbeam_epoch..guard..Guard$GT$17h83faae441caadd59E","ax",@progbits
	.p2align	4
	.type	_ZN4core3ptr50drop_in_place$LT$crossbeam_epoch..guard..Guard$GT$17h83faae441caadd59E,@function
_ZN4core3ptr50drop_in_place$LT$crossbeam_epoch..guard..Guard$GT$17h83faae441caadd59E:
	.cfi_startproc
	testq	%rdi, %rdi
	je	.LBB73_3
	movq	2072(%rdi), %rax
	leaq	-1(%rax), %rcx
	movq	%rcx, 2072(%rdi)
	cmpq	$1, %rax
	jne	.LBB73_3
	movq	$0, 2176(%rdi)
	cmpq	$0, 2080(%rdi)
	je	.LBB73_4
.LBB73_3:
	retq
.LBB73_4:
	jmpq	*_ZN15crossbeam_epoch8internal5Local8finalize17h57e1916f70983062E@GOTPCREL(%rip)
.Lfunc_end73:
	.size	_ZN4core3ptr50drop_in_place$LT$crossbeam_epoch..guard..Guard$GT$17h83faae441caadd59E, .Lfunc_end73-_ZN4core3ptr50drop_in_place$LT$crossbeam_epoch..guard..Guard$GT$17h83faae441caadd59E
	.cfi_endproc

	.section	".text._ZN4core3ptr52drop_in_place$LT$clap_builder..builder..arg..Arg$GT$17h3801a9edf821007bE","ax",@progbits
	.p2align	4
	.type	_ZN4core3ptr52drop_in_place$LT$clap_builder..builder..arg..Arg$GT$17h3801a9edf821007bE,@function
_ZN4core3ptr52drop_in_place$LT$clap_builder..builder..arg..Arg$GT$17h3801a9edf821007bE:
.Lfunc_begin36:
	.cfi_startproc
	.cfi_personality 155, DW.ref.rust_eh_personality
	.cfi_lsda 27, .Lexception36
	pushq	%r15
	.cfi_def_cfa_offset 16
	pushq	%r14
	.cfi_def_cfa_offset 24
	pushq	%r12
	.cfi_def_cfa_offset 32
	pushq	%rbx
	.cfi_def_cfa_offset 40
	pushq	%rax
	.cfi_def_cfa_offset 48
	.cfi_offset %rbx, -40
	.cfi_offset %r12, -32
	.cfi_offset %r14, -24
	.cfi_offset %r15, -16
	movq	%rdi, %rbx
	movq	488(%rdi), %rsi
	leaq	(,%rsi,2), %rax
	testq	%rax, %rax
	jne	.LBB74_1
	movq	512(%rbx), %rsi
	leaq	(,%rsi,2), %rax
	testq	%rax, %rax
	jne	.LBB74_3
.LBB74_4:
	movq	80(%rbx), %rax
	cmpq	$5, %rax
	jne	.LBB74_5
	jmp	.LBB74_10
.LBB74_1:
	movq	496(%rbx), %rdi
	movl	$1, %edx
	callq	*_RNvCsb3o7Y5DtQ0O_7___rustc14___rust_dealloc@GOTPCREL(%rip)
	movq	512(%rbx), %rsi
	leaq	(,%rsi,2), %rax
	testq	%rax, %rax
	je	.LBB74_4
.LBB74_3:
	movq	520(%rbx), %rdi
	movl	$1, %edx
	callq	*_RNvCsb3o7Y5DtQ0O_7___rustc14___rust_dealloc@GOTPCREL(%rip)
	movq	80(%rbx), %rax
	cmpq	$5, %rax
	je	.LBB74_10
.LBB74_5:
	cmpl	$4, %eax
	jb	.LBB74_10
	movq	88(%rbx), %r15
	movq	96(%rbx), %r12
	movq	(%r12), %rax
	testq	%rax, %rax
	je	.LBB74_8
.Ltmp452:
	movq	%r15, %rdi
	callq	*%rax
.Ltmp453:
.LBB74_8:
	movq	8(%r12), %rsi
	testq	%rsi, %rsi
	je	.LBB74_10
	movq	16(%r12), %rdx
	movq	%r15, %rdi
	callq	*_RNvCsb3o7Y5DtQ0O_7___rustc14___rust_dealloc@GOTPCREL(%rip)
.LBB74_10:
	movq	104(%rbx), %rsi
	testq	%rsi, %rsi
	je	.LBB74_12
	movq	112(%rbx), %rdi
	shlq	$4, %rsi
	movl	$8, %edx
	callq	*_RNvCsb3o7Y5DtQ0O_7___rustc14___rust_dealloc@GOTPCREL(%rip)
.LBB74_12:
	movq	128(%rbx), %rsi
	testq	%rsi, %rsi
	je	.LBB74_14
	movq	136(%rbx), %rdi
	shlq	$4, %rsi
	movl	$8, %edx
	callq	*_RNvCsb3o7Y5DtQ0O_7___rustc14___rust_dealloc@GOTPCREL(%rip)
.LBB74_14:
	movq	152(%rbx), %rsi
	testq	%rsi, %rsi
	je	.LBB74_16
	movq	160(%rbx), %rdi
	shlq	$4, %rsi
	movl	$8, %edx
	callq	*_RNvCsb3o7Y5DtQ0O_7___rustc14___rust_dealloc@GOTPCREL(%rip)
.LBB74_16:
	movq	176(%rbx), %rsi
	testq	%rsi, %rsi
	je	.LBB74_18
	movq	184(%rbx), %rdi
	shlq	$5, %rsi
	movl	$8, %edx
	callq	*_RNvCsb3o7Y5DtQ0O_7___rustc14___rust_dealloc@GOTPCREL(%rip)
.LBB74_18:
	movq	200(%rbx), %rsi
	testq	%rsi, %rsi
	je	.LBB74_20
	movq	208(%rbx), %rdi
	shlq	$5, %rsi
	movl	$8, %edx
	callq	*_RNvCsb3o7Y5DtQ0O_7___rustc14___rust_dealloc@GOTPCREL(%rip)
.LBB74_20:
	movq	224(%rbx), %rsi
	testq	%rsi, %rsi
	je	.LBB74_22
	movq	232(%rbx), %rdi
	shlq	$5, %rsi
	movl	$8, %edx
	callq	*_RNvCsb3o7Y5DtQ0O_7___rustc14___rust_dealloc@GOTPCREL(%rip)
.LBB74_22:
	movq	248(%rbx), %rsi
	testq	%rsi, %rsi
	je	.LBB74_24
	movq	256(%rbx), %rdi
	shlq	$4, %rsi
	movl	$8, %edx
	callq	*_RNvCsb3o7Y5DtQ0O_7___rustc14___rust_dealloc@GOTPCREL(%rip)
.LBB74_24:
	movq	272(%rbx), %rsi
	testq	%rsi, %rsi
	je	.LBB74_26
	movq	280(%rbx), %rdi
	shlq	$4, %rsi
	movl	$8, %edx
	callq	*_RNvCsb3o7Y5DtQ0O_7___rustc14___rust_dealloc@GOTPCREL(%rip)
.LBB74_26:
	movq	296(%rbx), %rax
	testq	%rax, %rax
	je	.LBB74_28
	movq	304(%rbx), %rdi
	shlq	$3, %rax
	leaq	(%rax,%rax,2), %rsi
	movl	$8, %edx
	callq	*_RNvCsb3o7Y5DtQ0O_7___rustc14___rust_dealloc@GOTPCREL(%rip)
.LBB74_28:
	movq	320(%rbx), %rsi
	testq	%rsi, %rsi
	je	.LBB74_30
	movq	328(%rbx), %rdi
	shlq	$3, %rsi
	movl	$4, %edx
	callq	*_RNvCsb3o7Y5DtQ0O_7___rustc14___rust_dealloc@GOTPCREL(%rip)
.LBB74_30:
	movq	344(%rbx), %rsi
	testq	%rsi, %rsi
	je	.LBB74_32
	movq	352(%rbx), %rdi
	shlq	$4, %rsi
	movl	$8, %edx
	callq	*_RNvCsb3o7Y5DtQ0O_7___rustc14___rust_dealloc@GOTPCREL(%rip)
.LBB74_32:
	movq	368(%rbx), %rsi
	testq	%rsi, %rsi
	je	.LBB74_34
	movq	376(%rbx), %rdi
	shlq	$4, %rsi
	movl	$8, %edx
	callq	*_RNvCsb3o7Y5DtQ0O_7___rustc14___rust_dealloc@GOTPCREL(%rip)
.LBB74_34:
	movq	392(%rbx), %rax
	testq	%rax, %rax
	je	.LBB74_36
	movq	400(%rbx), %rdi
	shlq	$4, %rax
	leaq	(%rax,%rax,2), %rsi
	movl	$8, %edx
	callq	*_RNvCsb3o7Y5DtQ0O_7___rustc14___rust_dealloc@GOTPCREL(%rip)
.LBB74_36:
	movq	416(%rbx), %rsi
	testq	%rsi, %rsi
	je	.LBB74_38
	movq	424(%rbx), %rdi
	shlq	$4, %rsi
	movl	$8, %edx
	callq	*_RNvCsb3o7Y5DtQ0O_7___rustc14___rust_dealloc@GOTPCREL(%rip)
.LBB74_38:
	movq	440(%rbx), %rsi
	testq	%rsi, %rsi
	je	.LBB74_40
	movq	448(%rbx), %rdi
	shlq	$4, %rsi
	movl	$8, %edx
	callq	*_RNvCsb3o7Y5DtQ0O_7___rustc14___rust_dealloc@GOTPCREL(%rip)
.LBB74_40:
	addq	$464, %rbx
	movq	%rbx, %rdi
	addq	$8, %rsp
	.cfi_def_cfa_offset 40
	popq	%rbx
	.cfi_def_cfa_offset 32
	popq	%r12
	.cfi_def_cfa_offset 24
	popq	%r14
	.cfi_def_cfa_offset 16
	popq	%r15
	.cfi_def_cfa_offset 8
	jmp	_ZN4core3ptr83drop_in_place$LT$alloc..vec..Vec$LT$clap_builder..util..any_value..AnyValue$GT$$GT$17hdc4d90d2f2db2289E
.LBB74_41:
	.cfi_def_cfa_offset 48
.Ltmp454:
	movq	%rax, %r14
	movq	8(%r12), %rsi
	testq	%rsi, %rsi
	jne	.LBB74_42
	movq	104(%rbx), %rsi
	testq	%rsi, %rsi
	jne	.LBB74_44
.LBB74_45:
	movq	128(%rbx), %rsi
	testq	%rsi, %rsi
	jne	.LBB74_46
.LBB74_47:
	movq	152(%rbx), %rsi
	testq	%rsi, %rsi
	jne	.LBB74_48
.LBB74_49:
	movq	176(%rbx), %rsi
	testq	%rsi, %rsi
	jne	.LBB74_50
.LBB74_51:
	movq	200(%rbx), %rsi
	testq	%rsi, %rsi
	jne	.LBB74_52
.LBB74_53:
	movq	224(%rbx), %rsi
	testq	%rsi, %rsi
	jne	.LBB74_54
.LBB74_55:
	movq	248(%rbx), %rsi
	testq	%rsi, %rsi
	jne	.LBB74_56
.LBB74_57:
	movq	272(%rbx), %rsi
	testq	%rsi, %rsi
	jne	.LBB74_58
.LBB74_59:
	movq	296(%rbx), %rax
	testq	%rax, %rax
	jne	.LBB74_60
.LBB74_61:
	movq	320(%rbx), %rsi
	testq	%rsi, %rsi
	jne	.LBB74_62
.LBB74_63:
	movq	344(%rbx), %rsi
	testq	%rsi, %rsi
	jne	.LBB74_64
.LBB74_65:
	movq	368(%rbx), %rsi
	testq	%rsi, %rsi
	jne	.LBB74_66
.LBB74_67:
	movq	392(%rbx), %rax
	testq	%rax, %rax
	jne	.LBB74_68
.LBB74_69:
	movq	416(%rbx), %rsi
	testq	%rsi, %rsi
	je	.LBB74_71
.LBB74_70:
	movq	424(%rbx), %rdi
	shlq	$4, %rsi
	movl	$8, %edx
	callq	*_RNvCsb3o7Y5DtQ0O_7___rustc14___rust_dealloc@GOTPCREL(%rip)
.LBB74_71:
	addq	$440, %rbx
.Ltmp455:
	movq	%rbx, %rdi
	callq	_ZN4core3ptr59drop_in_place$LT$clap_builder..builder..ext..Extensions$GT$17h27c817cb459c55d9E
.Ltmp456:
	movq	%r14, %rdi
	callq	_Unwind_Resume@PLT
.LBB74_42:
	movq	16(%r12), %rdx
	movq	%r15, %rdi
	callq	*_RNvCsb3o7Y5DtQ0O_7___rustc14___rust_dealloc@GOTPCREL(%rip)
	movq	104(%rbx), %rsi
	testq	%rsi, %rsi
	je	.LBB74_45
.LBB74_44:
	movq	112(%rbx), %rdi
	shlq	$4, %rsi
	movl	$8, %edx
	callq	*_RNvCsb3o7Y5DtQ0O_7___rustc14___rust_dealloc@GOTPCREL(%rip)
	movq	128(%rbx), %rsi
	testq	%rsi, %rsi
	je	.LBB74_47
.LBB74_46:
	movq	136(%rbx), %rdi
	shlq	$4, %rsi
	movl	$8, %edx
	callq	*_RNvCsb3o7Y5DtQ0O_7___rustc14___rust_dealloc@GOTPCREL(%rip)
	movq	152(%rbx), %rsi
	testq	%rsi, %rsi
	je	.LBB74_49
.LBB74_48:
	movq	160(%rbx), %rdi
	shlq	$4, %rsi
	movl	$8, %edx
	callq	*_RNvCsb3o7Y5DtQ0O_7___rustc14___rust_dealloc@GOTPCREL(%rip)
	movq	176(%rbx), %rsi
	testq	%rsi, %rsi
	je	.LBB74_51
.LBB74_50:
	movq	184(%rbx), %rdi
	shlq	$5, %rsi
	movl	$8, %edx
	callq	*_RNvCsb3o7Y5DtQ0O_7___rustc14___rust_dealloc@GOTPCREL(%rip)
	movq	200(%rbx), %rsi
	testq	%rsi, %rsi
	je	.LBB74_53
.LBB74_52:
	movq	208(%rbx), %rdi
	shlq	$5, %rsi
	movl	$8, %edx
	callq	*_RNvCsb3o7Y5DtQ0O_7___rustc14___rust_dealloc@GOTPCREL(%rip)
	movq	224(%rbx), %rsi
	testq	%rsi, %rsi
	je	.LBB74_55
.LBB74_54:
	movq	232(%rbx), %rdi
	shlq	$5, %rsi
	movl	$8, %edx
	callq	*_RNvCsb3o7Y5DtQ0O_7___rustc14___rust_dealloc@GOTPCREL(%rip)
	movq	248(%rbx), %rsi
	testq	%rsi, %rsi
	je	.LBB74_57
.LBB74_56:
	movq	256(%rbx), %rdi
	shlq	$4, %rsi
	movl	$8, %edx
	callq	*_RNvCsb3o7Y5DtQ0O_7___rustc14___rust_dealloc@GOTPCREL(%rip)
	movq	272(%rbx), %rsi
	testq	%rsi, %rsi
	je	.LBB74_59
.LBB74_58:
	movq	280(%rbx), %rdi
	shlq	$4, %rsi
	movl	$8, %edx
	callq	*_RNvCsb3o7Y5DtQ0O_7___rustc14___rust_dealloc@GOTPCREL(%rip)
	movq	296(%rbx), %rax
	testq	%rax, %rax
	je	.LBB74_61
.LBB74_60:
	movq	304(%rbx), %rdi
	shlq	$3, %rax
	leaq	(%rax,%rax,2), %rsi
	movl	$8, %edx
	callq	*_RNvCsb3o7Y5DtQ0O_7___rustc14___rust_dealloc@GOTPCREL(%rip)
	movq	320(%rbx), %rsi
	testq	%rsi, %rsi
	je	.LBB74_63
.LBB74_62:
	movq	328(%rbx), %rdi
	shlq	$3, %rsi
	movl	$4, %edx
	callq	*_RNvCsb3o7Y5DtQ0O_7___rustc14___rust_dealloc@GOTPCREL(%rip)
	movq	344(%rbx), %rsi
	testq	%rsi, %rsi
	je	.LBB74_65
.LBB74_64:
	movq	352(%rbx), %rdi
	shlq	$4, %rsi
	movl	$8, %edx
	callq	*_RNvCsb3o7Y5DtQ0O_7___rustc14___rust_dealloc@GOTPCREL(%rip)
	movq	368(%rbx), %rsi
	testq	%rsi, %rsi
	je	.LBB74_67
.LBB74_66:
	movq	376(%rbx), %rdi
	shlq	$4, %rsi
	movl	$8, %edx
	callq	*_RNvCsb3o7Y5DtQ0O_7___rustc14___rust_dealloc@GOTPCREL(%rip)
	movq	392(%rbx), %rax
	testq	%rax, %rax
	je	.LBB74_69
.LBB74_68:
	movq	400(%rbx), %rdi
	shlq	$4, %rax
	leaq	(%rax,%rax,2), %rsi
	movl	$8, %edx
	callq	*_RNvCsb3o7Y5DtQ0O_7___rustc14___rust_dealloc@GOTPCREL(%rip)
	movq	416(%rbx), %rsi
	testq	%rsi, %rsi
	jne	.LBB74_70
	jmp	.LBB74_71
.LBB74_73:
.Ltmp457:
	callq	*_ZN4core9panicking16panic_in_cleanup17h6f48b941993644b5E@GOTPCREL(%rip)
.Lfunc_end74:
	.size	_ZN4core3ptr52drop_in_place$LT$clap_builder..builder..arg..Arg$GT$17h3801a9edf821007bE, .Lfunc_end74-_ZN4core3ptr52drop_in_place$LT$clap_builder..builder..arg..Arg$GT$17h3801a9edf821007bE
	.cfi_endproc
	.section	".gcc_except_table._ZN4core3ptr52drop_in_place$LT$clap_builder..builder..arg..Arg$GT$17h3801a9edf821007bE","a",@progbits
	.p2align	2, 0x0
GCC_except_table74:
.Lexception36:
	.byte	255
	.byte	155
	.uleb128 .Lttbase25-.Lttbaseref25
.Lttbaseref25:
	.byte	1
	.uleb128 .Lcst_end36-.Lcst_begin36
.Lcst_begin36:
	.uleb128 .Ltmp452-.Lfunc_begin36
	.uleb128 .Ltmp453-.Ltmp452
	.uleb128 .Ltmp454-.Lfunc_begin36
	.byte	0
	.uleb128 .Ltmp453-.Lfunc_begin36
	.uleb128 .Ltmp455-.Ltmp453
	.byte	0
	.byte	0
	.uleb128 .Ltmp455-.Lfunc_begin36
	.uleb128 .Ltmp456-.Ltmp455
	.uleb128 .Ltmp457-.Lfunc_begin36
	.byte	1
	.uleb128 .Ltmp456-.Lfunc_begin36
	.uleb128 .Lfunc_end74-.Ltmp456
	.byte	0
	.byte	0
.Lcst_end36:
	.byte	127
	.byte	0
	.p2align	2, 0x0
.Lttbase25:
	.byte	0
	.p2align	2, 0x0

